(lp1
Vtt0112572
p2
aVtt0096787
p3
aVtt0104691
p4
aVtt0082158
p5
aVtt0356470
p6
aVtt0086405
p7
aVtt0104647
p8
aVtt0376105
p9
aVtt0171433
p10
aVtt1320244
p11
aVtt0160009
p12
aVtt0409847
p13
aVtt0097958
p14
aVtt0906108
p15
aVtt0960731
p16
aVtt0113690
p17
aVtt0145921
p18
aVtt0119360
p19
aVtt0160127
p20
aVtt0082111
p21
aVtt0458352
p22
aVtt0213203
p23
aVtt0401855
p24
aVtt0080934
p25
aVtt0124298
p26
aVtt0134847
p27
aVtt0109830
p28
aVtt0100486
p29
aVtt1074638
p30
aVtt0102609
p31
aVtt0083833
p32
aVtt0319343
p33
aVtt0962726
p34
aVtt0146316
p35
aVtt1663662
p36
aVtt0098206
p37
aVtt1013752
p38
aVtt0413895
p39
aVtt0091295
p40
aVtt0098645
p41
aVtt0811138
p42
aVtt0103060
p43
aVtt0111280
p44
aVtt0101329
p45
aVtt1446192
p46
aVtt0085905
p47
aVtt1007029
p48
aVtt0269347
p49
aVtt0100054
p50
aVtt0337741
p51
aVtt0848228
p52
aVtt0164114
p53
aVtt0112573
p54
aVtt0107131
p55
aVtt0118928
p56
aVtt1294226
p57
aVtt0090713
p58
aVtt0335438
p59
aVtt0104692
p60
aVtt1155076
p61
aVtt0081259
p62
aVtt0257076
p63
aVtt0185937
p64
aVtt0110557
p65
aVtt1397514
p66
aVtt1911644
p67
aVtt0119137
p68
aVtt0086886
p69
aVtt0486946
p70
aVtt0212720
p71
aVtt0374536
p72
aVtt0970179
p73
aVtt1517260
p74
aVtt0117110
p75
aVtt0482606
p76
aVtt0337978
p77
aVtt0093894
p78
aVtt0120611
p79
aVtt0181865
p80
aVtt0102034
p81
aVtt0431308
p82
aVtt0302886
p83
aVtt1981677
p84
aVtt0082507
p85
aVtt0364045
p86
aVtt0109446
p87
aVtt0317303
p88
aVtt0790604
p89
aVtt0106697
p90
aVtt0090735
p91
aVtt0090319
p92
aVtt0362227
p93
aVtt0124879
p94
aVtt0800369
p95
aVtt0095631
p96
aVtt0417001
p97
aVtt0203009
p98
aVtt0104114
p99
aVtt0120587
p100
aVtt0139668
p101
aVtt0425061
p102
aVtt0083972
p103
aVtt0311113
p104
aVtt0086058
p105
aVtt0105121
p106
aVtt0424942
p107
aVtt0457433
p108
aVtt0110367
p109
aVtt0100502
p110
aVtt0314331
p111
aVtt0103786
p112
aVtt0463985
p113
aVtt1596350
p114
aVtt0082307
p115
aVtt0452681
p116
aVtt0112864
p117
aVtt0091777
p118
aVtt0117500
p119
aVtt0381971
p120
aVtt0758794
p121
aVtt0120888
p122
aVtt1591479
p123
aVtt0099685
p124
aVtt0106918
p125
aVtt0433400
p126
aVtt0256380
p127
aVtt0131325
p128
aVtt0120764
p129
aVtt0156934
p130
aVtt0089160
p131
aVtt0102614
p132
aVtt0253474
p133
aVtt0424774
p134
aVtt1073498
p135
aVtt0096061
p136
aVtt0257756
p137
aVtt0119567
p138
aVtt0104291
p139
aVtt0096073
p140
aVtt0087589
p141
aVtt0383216
p142
aVtt0086379
p143
aVtt0113862
p144
aVtt0145681
p145
aVtt0089822
p146
aVtt0107478
p147
aVtt0317740
p148
aVtt0089126
p149
aVtt0418689
p150
aVtt0096328
p151
aVtt0093300
p152
aVtt0099044
p153
aVtt0097579
p154
aVtt0086197
p155
aVtt0286106
p156
aVtt0218839
p157
aVtt0113729
p158
aVtt1130080
p159
aVtt0370263
p160
aVtt0322802
p161
aVtt0089869
p162
aVtt1453405
p163
aVtt0314353
p164
aVtt1114677
p165
aVtt0117631
p166
aVtt0112697
p167
aVtt0089017
p168
aVtt0389
p169
aVtt0205000
p170
aVtt0120647
p171
aVtt0099747
p172
aVtt0368008
p173
aVtt0120703
p174
aVtt0097523
p175
aVtt0114287
p176
aVtt0120828
p177
aVtt1711425
p178
aVtt0472181
p179
aVtt0096256
p180
aVtt0107822
p181
aVtt0116683
p182
aVtt0093137
p183
aVtt0274558
p184
aVtt1155056
p185
aVtt0088763
p186
aVtt0088011
p187
aVtt0084749
p188
aVtt0104670
p189
aVtt0092494
p190
aVtt0090660
p191
aVtt1433813
p192
aVtt0115783
p193
aVtt0306841
p194
aVtt0094025
p195
aVtt0118607
p196
aVtt0442933
p197
aVtt0116040
p198
aVtt0107212
p199
aVtt0105477
p200
aVtt0149691
p201
aVtt0119215
p202
aVtt0110612
p203
aVtt0305224
p204
aVtt0453562
p205
aVtt0101969
p206
aVtt1302067
p207
aVtt1311067
p208
aVtt1596346
p209
aVtt0319262
p210
aVtt0094226
p211
aVtt0102900
p212
aVtt0326900
p213
aVtt0088161
p214
aVtt0775552
p215
aVtt0086859
p216
aVtt2215719
p217
aVtt0089173
p218
aVtt0120863
p219
aVtt0115433
p220
aVtt2184339
p221
aVtt0085970
p222
aVtt0866439
p223
aVtt0107290
p224
aVtt0146675
p225
aVtt0115644
p226
aVtt0087078
p227
aVtt0947798
p228
aVtt0396555
p229
aVtt0945513
p230
aVtt1219342
p231
aVtt0165929
p232
aVtt0113755
p233
aVtt0455967
p234
aVtt0107211
p235
aVtt0123209
p236
aVtt1217613
p237
aVtt0267804
p238
aVtt0478087
p239
aVtt0469641
p240
aVtt0427309
p241
aVtt0114048
p242
aVtt0080472
p243
aVtt0085750
p244
aVtt1391137
p245
aVtt1691917
p246
aVtt1197624
p247
aVtt0091369
p248
aVtt0250494
p249
aVtt0182789
p250
aVtt0095271
p251
aVtt0089767
p252
aVtt0108255
p253
aVtt1091191
p254
aVtt0117438
p255
aVtt2431286
p256
aVtt0100224
p257
aVtt0083254
p258
aVtt0117951
p259
aVtt0477071
p260
aVtt0465234
p261
aVtt0088146
p262
aVtt0120434
p263
aVtt0119695
p264
aVtt0114825
p265
aVtt0082971
p266
aVtt0770828
p267
aVtt0187078
p268
aVtt1622979
p269
aVtt1477715
p270
aVtt0887883
p271
aVtt0243585
p272
aVtt0151738
p273
aVtt1787759
p274
aVtt0115907
p275
aVtt0101917
p276
aVtt0104454
p277
aVtt0080749
p278
aVtt0358273
p279
aVtt0113627
p280
aVtt0095016
p281
aVtt0300532
p282
aVtt0433386
p283
aVtt2229499
p284
aVtt0837562
p285
aVtt0231775
p286
aVtt0385880
p287
aVtt0118771
p288
aVtt0120382
p289
aVtt0218967
p290
aVtt0327679
p291
aVtt0144528
p292
aVtt0091419
p293
aVtt0109305
p294
aVtt0181536
p295
aVtt0120737
p296
aVtt0091875
p297
aVtt0080339
p298
aVtt0113189
p299
aVtt1068680
p300
aVtt0118655
p301
aVtt0120601
p302
aVtt0120913
p303
aVtt1144884
p304
aVtt0199725
p305
aVtt0181852
p306
aVtt0091499
p307
aVtt0081375
p308
aVtt0175880
p309
aVtt0368891
p310
aVtt0117979
p311
aVtt0099073
p312
aVtt0093737
p313
aVtt0086393
p314
aVtt0110099
p315
aVtt0092638
p316
aVtt0097216
p317
aVtt0279889
p318
aVtt0088206
p319
aVtt0377092
p320
aVtt0091080
p321
aVtt0411477
p322
aVtt0125022
p323
aVtt1075417
p324
aVtt0089346
p325
aVtt0097500
p326
aVtt0114388
p327
aVtt0113538
p328
aVtt0093148
p329
aVtt1126618
p330
aVtt1232829
p331
aVtt0082263
p332
aVtt0100485
p333
aVtt0102729
p334
aVtt0119311
p335
aVtt0114885
p336
aVtt0105217
p337
aVtt0477348
p338
aVtt0107798
p339
aVtt0109190
p340
aVtt0106519
p341
aVtt0094602
p342
aVtt0183790
p343
aVtt0118073
p344
aVtt0117918
p345
aVtt0117420
p346
aVtt0098105
p347
aVtt0185371
p348
aVtt0080487
p349
aVtt0295178
p350
aVtt0086361
p351
aVtt0093748
p352
aVtt0091778
p353
aVtt0266543
p354
aVtt0082001
p355
aVtt0097481
p356
aVtt1596343
p357
aVtt0102803
p358
aVtt0085255
p359
aVtt0163978
p360
aVtt1351685
p361
aVtt0091949
p362
aVtt0294870
p363
aVtt0127536
p364
aVtt0101587
p365
aVtt0129280
p366
aVtt0107943
p367
aVtt0181689
p368
aVtt0120188
p369
aVtt0309593
p370
aVtt0430357
p371
aVtt0102216
p372
aVtt1148204
p373
aVtt0114214
p374
aVtt0107843
p375
aVtt1371111
p376
aVtt0086383
p377
aVtt0134119
p378
aVtt0093857
p379
aVtt0118632
p380
aVtt0307987
p381
aVtt0304415
p382
aVtt0343660
p383
aVtt0093407
p384
aVtt0952640
p385
aVtt0100419
p386
aVtt0095294
p387
aVtt0113855
p388
aVtt0164334
p389
aVtt0095348
p390
aVtt0099165
p391
aVtt0783233
p392
aVtt0120667
p393
aVtt0119214
p394
aVtt0325703
p395
aVtt0359517
p396
aVtt0362270
p397
aVtt0118548
p398
aVtt1408101
p399
aVtt0119396
p400
aVtt2247692
p401
aVtt0120789
p402
aVtt1650062
p403
aVtt0120657
p404
aVtt1156398
p405
aVtt1041829
p406
aVtt0105219
p407
aVtt0758774
p408
aVtt0141369
p409
aVtt0101540
p410
aVtt1860353
p411
aVtt0414853
p412
aVtt1951264
p413
aVtt0090888
p414
aVtt0112641
p415
aVtt0239395
p416
aVtt0083281
p417
aVtt0436339
p418
aVtt0419706
p419
aVtt0093596
p420
aVtt1939659
p421
aVtt0196229
p422
aVtt0080661
p423
aVtt0109520
p424
aVtt0080684
p425
aVtt0080731
p426
aVtt0443272
p427
aVtt0085380
p428
aVtt0114069
p429
aVtt0082199
p430
aVtt0120660
p431
aVtt1057500
p432
aVtt0089222
p433
aVtt0116191
p434
aVtt0099005
p435
aVtt0289765
p436
aVtt0267626
p437
aVtt0088213
p438
aVtt0095654
p439
aVtt0109198
p440
aVtt0097967
p441
aVtt0117723
p442
aVtt0109504
p443
aVtt0082288
p444
aVtt0879870
p445
aVtt0080948
p446
aVtt0095705
p447
aVtt0356618
p448
aVtt0088194
p449
aVtt0082764
p450
aVtt0086429
p451
aVtt0119925
p452
aVtt2473682
p453
aVtt0944835
p454
aVtt0095031
p455
aVtt0244244
p456
aVtt1411238
p457
aVtt0090223
p458
aVtt0245280
p459
aVtt1245492
p460
aVtt0364725
p461
aVtt0238112
p462
aVtt0360717
p463
aVtt0116493
p464
aVtt0308644
p465
aVtt0093779
p466
aVtt0349710
p467
aVtt1321509
p468
aVtt0098309
p469
aVtt0110725
p470
aVtt0110632
p471
aVtt0903624
p472
aVtt0099316
p473
aVtt0266915
p474
aVtt0327056
p475
aVtt1139668
p476
aVtt0100507
p477
aVtt0403508
p478
aVtt0106627
p479
aVtt0081031
p480
aVtt0117331
p481
aVtt0098067
p482
aVtt0106598
p483
aVtt0146336
p484
aVtt0116778
p485
aVtt0098384
p486
aVtt1667353
p487
aVtt0097108
p488
aVtt0093220
p489
aVtt1568346
p490
aVtt0333780
p491
aVtt0104036
p492
aVtt0268695
p493
aVtt0815236
p494
aVtt0103184
p495
aVtt0119109
p496
aVtt0217505
p497
aVtt2234155
p498
aVtt0388125
p499
aVtt0119051
p500
aVtt0405325
p501
aVtt0120324
p502
aVtt0090217
p503
aVtt0089360
p504
aVtt0210945
p505
aVtt1568911
p506
aVtt0237572
p507
aVtt1212419
p508
aVtt0087344
p509
aVtt0361467
p510
aVtt0110443
p511
aVtt0097116
p512
aVtt0242653
p513
aVtt1142798
p514
aVtt0093010
p515
aVtt0093818
p516
aVtt1259571
p517
aVtt0114924
p518
aVtt0103855
p519
aVtt0250797
p520
aVtt0096320
p521
aVtt0091680
p522
aVtt1298650
p523
aVtt0116313
p524
aVtt0098966
p525
aVtt0118583
p526
aVtt0102655
p527
aVtt0163651
p528
aVtt0081398
p529
aVtt0775539
p530
aVtt0081974
p531
aVtt0101625
p532
aVtt0102789
p533
aVtt0103776
p534
aVtt0110478
p535
aVtt0118750
p536
aVtt0253556
p537
aVtt0
p538
aVtt0397892
p539
aVtt0119313
p540
aVtt0372532
p541
aVtt0327162
p542
aVtt0404032
p543
aVtt0250687
p544
aVtt0086034
p545
aVtt0298203
p546
aVtt0110598
p547
aVtt0427327
p548
aVtt0113500
p549
aVtt0116669
p550
aVtt1194173
p551
aVtt0762114
p552
aVtt1192628
p553
aVtt0266697
p554
aVtt0119942
p555
aVtt0286716
p556
aVtt0215750
p557
aVtt0103074
p558
aVtt0113501
p559
aVtt0095519
p560
aVtt0175142
p561
aVtt0458339
p562
aVtt0372784
p563
aVtt0084899
p564
aVtt0246460
p565
aVtt0102975
p566
aVtt0115798
p567
aVtt0265087
p568
aVtt0120746
p569
aVtt0103893
p570
aVtt0481141
p571
aVtt0259711
p572
aVtt0800080
p573
aVtt2243537
p574
aVtt0097457
p575
aVtt0102316
p576
aVtt0488120
p577
aVtt0265029
p578
aVtt0290095
p579
aVtt0082096
p580
aVtt0116629
p581
aVtt0955308
p582
aVtt0091149
p583
aVtt0119707
p584
aVtt0186151
p585
aVtt0770752
p586
aVtt0090917
p587
aVtt0113492
p588
aVtt0361596
p589
aVtt0112625
p590
aVtt0100404
p591
aVtt0084049
p592
aVtt0462499
p593
aVtt0105811
p594
aVtt1636826
p595
aVtt0305669
p596
aVtt0312004
p597
aVtt1748122
p598
aVtt0120004
p599
aVtt1790885
p600
aVtt0120576
p601
aVtt0088987
p602
aVtt0976051
p603
aVtt0107616
p604
aVtt0099365
p605
aVtt0120631
p606
aVtt0085271
p607
aVtt0088680
p608
aVtt0107659
p609
aVtt0107091
p610
aVtt0108358
p611
aVtt0096054
p612
aVtt0103919
p613
aVtt0371606
p614
aVtt2191701
p615
aVtt0335245
p616
aVtt0425123
p617
aVtt0092796
p618
aVtt0137523
p619
aVtt0105636
p620
aVtt1201167
p621
aVtt0097770
p622
aVtt0438097
p623
aVtt0478311
p624
aVtt0117913
p625
aVtt0109493
p626
aVtt0104839
p627
aVtt0161081
p628
aVtt0209144
p629
aVtt0090305
p630
aVtt0105812
p631
aVtt0093044
p632
aVtt0406759
p633
aVtt0183505
p634
aVtt0089421
p635
aVtt0257106
p636
aVtt0094737
p637
aVtt0381849
p638
aVtt0245562
p639
aVtt0090859
p640
aVtt0318649
p641
aVtt0087182
p642
aVtt0408306
p643
aVtt0120681
p644
aVtt0882977
p645
aVtt0093693
p646
aVtt0133751
p647
aVtt1024648
p648
aVtt0120873
p649
aVtt0165982
p650
aVtt0245803
p651
aVtt0120661
p652
aVtt1411250
p653
aVtt0111742
p654
aVtt0094884
p655
aVtt1535438
p656
aVtt0131704
p657
aVtt0230030
p658
aVtt0094608
p659
aVtt0892318
p660
aVtt1231587
p661
aVtt0099512
p662
aVtt0116282
p663
aVtt0106387
p664
aVtt0443489
p665
aVtt0085873
p666
aVtt0098471
p667
aVtt0327437
p668
aVtt0101745
p669
aVtt0333766
p670
aVtt0094321
p671
aVtt0204313
p672
aVtt1623205
p673
aVtt0120591
p674
aVtt1013753
p675
aVtt0097166
p676
aVtt0117119
p677
aVtt0091203
p678
aVtt0100442
p679
aVtt0358082
p680
aVtt1655442
p681
aVtt0444682
p682
aVtt0429493
p683
aVtt0469494
p684
aVtt0102057
p685
aVtt0088707
p686
aVtt0256415
p687
aVtt1232200
p688
aVtt0125454
p689
aVtt0090728
p690
aVtt0110516
p691
aVtt0316654
p692
aVtt0087928
p693
aVtt0095497
p694
aVtt1078940
p695
aVtt0298148
p696
aVtt0844471
p697
aVtt0325805
p698
aVtt0094715
p699
aVtt0419984
p700
aVtt0099487
p701
aVtt0112851
p702
aVtt0116421
p703
aVtt0486583
p704
aVtt1135503
p705
aVtt0092690
p706
aVtt0397101
p707
aVtt0144814
p708
aVtt0083943
p709
aVtt0446029
p710
aVtt1277953
p711
aVtt0114887
p712
aVtt0286499
p713
aVtt0110877
p714
aVtt0421239
p715
aVtt0095188
p716
aVtt0306047
p717
aVtt0454848
p718
aVtt0118799
p719
aVtt1341188
p720
aVtt0106868
p721
aVtt0947802
p722
aVtt0091055
p723
aVtt0109035
p724
aVtt0094678
p725
aVtt1078588
p726
aVtt0119822
p727
aVtt0382625
p728
aVtt0119594
p729
aVtt0120804
p730
aVtt0109484
p731
aVtt0362120
p732
aVtt0097474
p733
aVtt1185416
p734
aVtt0104452
p735
aVtt1130884
p736
aVtt0102004
p737
aVtt0101846
p738
aVtt1428538
p739
aVtt1210819
p740
aVtt1233227
p741
aVtt0119468
p742
aVtt0132347
p743
aVtt0938283
p744
aVtt0120633
p745
aVtt0095174
p746
aVtt0377981
p747
aVtt0088128
p748
aVtt0174480
p749
aVtt0106673
p750
aVtt0132245
p751
aVtt0313443
p752
aVtt0110364
p753
aVtt0119174
p754
aVtt0315327
p755
aVtt0096101
p756
aVtt0081283
p757
aVtt0455612
p758
aVtt0295701
p759
aVtt0322589
p760
aVtt1170358
p761
aVtt0082677
p762
aVtt0986263
p763
aVtt0120749
p764
aVtt0095243
p765
aVtt0104549
p766
aVtt1217209
p767
aVtt0100087
p768
aVtt0097428
p769
aVtt0443632
p770
aVtt0409459
p771
aVtt0092991
p772
aVtt0463998
p773
aVtt0149261
p774
aVtt0463034
p775
aVtt0109642
p776
aVtt0206314
p777
aVtt0104427
p778
aVtt0817538
p779
aVtt0114369
p780
aVtt0084516
p781
aVtt1018785
p782
aVtt0102220
p783
aVtt0120744
p784
aVtt0101453
p785
aVtt1706593
p786
aVtt0117998
p787
aVtt0102011
p788
aVtt0372183
p789
aVtt0339412
p790
aVtt1645170
p791
aVtt0097388
p792
aVtt0120577
p793
aVtt0110322
p794
aVtt0111667
p795
aVtt1288558
p796
aVtt0368933
p797
aVtt0097981
p798
aVtt0465494
p799
aVtt0090738
p800
aVtt0158983
p801
aVtt1611224
p802
aVtt0091187
p803
aVtt0109303
p804
aVtt1710396
p805
aVtt0114508
p806
aVtt0305711
p807
aVtt0110146
p808
aVtt0094008
p809
aVtt0095159
p810
aVtt0164912
p811
aVtt0104299
p812
aVtt0082406
p813
aVtt0481369
p814
aVtt0085838
p815
aVtt1014759
p816
aVtt0280590
p817
aVtt2515086
p818
aVtt0110157
p819
aVtt0340163
p820
aVtt0092654
p821
aVtt0097368
p822
aVtt0099850
p823
aVtt0120685
p824
aVtt0106489
p825
aVtt1560985
p826
aVtt0117372
p827
aVtt1578275
p828
aVtt1375666
p829
aVtt0454841
p830
aVtt0100318
p831
aVtt0104940
p832
aVtt0092857
p833
aVtt1114740
p834
aVtt0255798
p835
aVtt0095119
p836
aVtt0119905
p837
aVtt0094894
p838
aVtt0093175
p839
aVtt0086465
p840
aVtt1314228
p841
aVtt0457419
p842
aVtt0388419
p843
aVtt0103859
p844
aVtt0112442
p845
aVtt0285531
p846
aVtt0113071
p847
aVtt0100740
p848
aVtt0462590
p849
aVtt0117665
p850
aVtt0108148
p851
aVtt0103639
p852
aVtt0249478
p853
aVtt0990407
p854
aVtt0112571
p855
aVtt0107282
p856
aVtt0097737
p857
aVtt0114898
p858
aVtt0281358
p859
aVtt0369436
p860
aVtt0479500
p861
aVtt0088330
p862
aVtt0089370
p863
aVtt0166396
p864
aVtt0389790
p865
aVtt0102598
p866
aVtt0399146
p867
aVtt0338526
p868
aVtt1402488
p869
aVtt0084316
p870
aVtt0163025
p871
aVtt1762399
p872
aVtt0107206
p873
aVtt0356634
p874
aVtt0090633
p875
aVtt0087089
p876
aVtt0332047
p877
aVtt0115683
p878
aVtt0086637
p879
aVtt0088256
p880
aVtt0424095
p881
aVtt0096943
p882
aVtt0092974
p883
aVtt0107630
p884
aVtt0092965
p885
aVtt0086879
p886
aVtt0204626
p887
aVtt0466909
p888
aVtt0190590
p889
aVtt0388795
p890
aVtt0988045
p891
aVtt0299658
p892
aVtt1885265
p893
aVtt1189340
p894
aVtt0799949
p895
aVtt0095927
p896
aVtt0386588
p897
aVtt0111438
p898
aVtt0096928
p899
aVtt0379865
p900
aVtt0119164
p901
aVtt0091828
p902
aVtt0106912
p903
aVtt0219854
p904
aVtt0085615
p905
aVtt0097987
p906
aVtt0408236
p907
aVtt0112346
p908
aVtt0386032
p909
aVtt0112462
p910
aVtt0120910
p911
aVtt0265298
p912
aVtt0106292
p913
aVtt0097162
p914
aVtt0114709
p915
aVtt0832266
p916
aVtt1327194
p917
aVtt0433383
p918
aVtt0087629
p919
aVtt0246544
p920
aVtt0114168
p921
aVtt0119738
p922
aVtt0110399
p923
aVtt1778304
p924
aVtt0268380
p925
aVtt0983193
p926
aVtt0452594
p927
aVtt0098382
p928
aVtt0089530
p929
aVtt0329691
p930
aVtt0120484
p931
aVtt0120347
p932
aVtt0110613
p933
aVtt0298388
p934
aVtt1598828
p935
aVtt0107497
p936
aVtt0167260
p937
aVtt0092666
p938
aVtt0279493
p939
aVtt0261392
p940
aVtt0368447
p941
aVtt0112431
p942
aVtt0110064
p943
aVtt0100395
p944
aVtt0091799
p945
aVtt1270798
p946
aVtt0236493
p947
aVtt0096734
p948
aVtt0252866
p949
aVtt0086993
p950
aVtt0080380
p951
aVtt0087233
p952
aVtt0096380
p953
aVtt0110116
p954
aVtt0220099
p955
aVtt0250274
p956
aVtt0146309
p957
aVtt0094910
p958
aVtt1111422
p959
aVtt0106611
p960
aVtt0082894
p961
aVtt0129290
p962
aVtt0092627
p963
aVtt0100449
p964
aVtt0094012
p965
aVtt1440728
p966
aVtt0926129
p967
aVtt0162661
p968
aVtt0097757
p969
aVtt0168501
p970
aVtt0100530
p971
aVtt1205489
p972
aVtt0101272
p973
aVtt0094291
p974
aVtt0087231
p975
aVtt0121766
p976
aVtt0974661
p977
aVtt0117765
p978
aVtt0257044
p979
aVtt0117509
p980
aVtt0195945
p981
aVtt0119217
p982
aVtt1234548
p983
aVtt0103007
p984
aVtt0198021
p985
aVtt0104926
p986
aVtt0283026
p987
aVtt0095800
p988
aVtt0119643
p989
aVtt0449089
p990
aVtt0105391
p991
aVtt1185834
p992
aVtt0108162
p993
aVtt0106400
p994
aVtt0267913
p995
aVtt0110213
p996
aVtt1403865
p997
aVtt0385307
p998
aVtt0454945
p999
aVtt0121765
p1000
aVtt0085995
p1001
aVtt1104001
p1002
aVtt1262416
p1003
aVtt0159365
p1004
aVtt0453451
p1005
aVtt0496806
p1006
aVtt0162677
p1007
aVtt0101821
p1008
aVtt0101902
p1009
aVtt0327554
p1010
aVtt0111282
p1011
aVtt0352248
p1012
aVtt0120841
p1013
aVtt0814314
p1014
aVtt0094824
p1015
aVtt0386140
p1016
aVtt0277027
p1017
aVtt0252076
p1018
aVtt0494652
p1019
aVtt1605783
p1020
aVtt0096094
p1021
aVtt0949731
p1022
aVtt0120524
p1023
aVtt0377109
p1024
aVtt0105695
p1025
aVtt0120102
p1026
aVtt0817230
p1027
aVtt1572315
p1028
aVtt0273923
p1029
aVtt0098273
p1030
aVtt0120185
p1031
aVtt0408790
p1032
aVtt1430132
p1033
aVtt0128278
p1034
aVtt0096438
p1035
aVtt0090219
p1036
aVtt0109831
p1037
aVtt0082269
p1038
aVtt0126916
p1039
aVtt0103247
p1040
aVtt0432291
p1041
aVtt0116259
p1042
aVtt0964517
p1043
aVtt0097239
p1044
aVtt0169547
p1045
aVtt0099253
p1046
aVtt0808510
p1047
aVtt1196141
p1048
aVtt0110622
p1049
aVtt0140352
p1050
aVtt0117218
p1051
aVtt1001526
p1052
aVtt0325537
p1053
aVtt0101605
p1054
aVtt0414982
p1055
aVtt0091064
p1056
aVtt0181875
p1057
aVtt0910936
p1058
aVtt0426931
p1059
aVtt0113419
p1060
aVtt0106223
p1061
aVtt0150377
p1062
aVtt0108174
p1063
aVtt0401623
p1064
aVtt1596365
p1065
aVtt0097742
p1066
aVtt0110638
p1067
aVtt0120029
p1068
aVtt0097722
p1069
aVtt0113986
p1070
aVtt0829482
p1071
aVtt0115857
p1072
aVtt0099052
p1073
aVtt1142800
p1074
aVtt0085656
p1075
aVtt0101757
p1076
aVtt1034331
p1077
aVtt0305357
p1078
aVtt1222817
p1079
aVtt1536044
p1080
aVtt1570728
p1081
aVtt1010048
p1082
aVtt0105414
p1083
aVtt0113117
p1084
aVtt0432021
p1085
aVtt0335266
p1086
aVtt1632708
p1087
aVtt0138749
p1088
aVtt0265662
p1089
aVtt0131369
p1090
aVtt0093507
p1091
aVtt0320661
p1092
aVtt0113118
p1093
aVtt1014775
p1094
aVtt0084234
p1095
aVtt0101635
p1096
aVtt0317919
p1097
aVtt0212346
p1098
aVtt0119715
p1099
aVtt0374102
p1100
aVtt0363771
p1101
aVtt0359013
p1102
aVtt0095897
p1103
aVtt0102984
p1104
aVtt0811080
p1105
aVtt0090774
p1106
aVtt0328880
p1107
aVtt1723121
p1108
aVtt0102951
p1109
aVtt2017020
p1110
aVtt0486655
p1111
aVtt0398165
p1112
aVtt1213663
p1113
aVtt1038686
p1114
aVtt0313911
p1115
aVtt0084088
p1116
aVtt0093936
p1117
aVtt0401729
p1118
aVtt0271668
p1119
aVtt0338094
p1120
aVtt0108308
p1121
aVtt0110912
p1122
aVtt0089927
p1123
aVtt1212450
p1124
aVtt1478338
p1125
aVtt0082362
p1126
aVtt0087803
p1127
aVtt0186975
p1128
aVtt0106220
p1129
aVtt1385867
p1130
aVtt0102603
p1131
aVtt0107076
p1132
aVtt0146984
p1133
aVtt0119086
p1134
aVtt0481536
p1135
aVtt0084268
p1136
aVtt0167427
p1137
aVtt0106965
p1138
aVtt0107840
p1139
aVtt0093870
p1140
aVtt0111255
p1141
aVtt0118604
p1142
aVtt1758830
p1143
aVtt0100133
p1144
aVtt0083190
p1145
aVtt0100050
p1146
aVtt0448694
p1147
aVtt0110353
p1148
aVtt0089881
p1149
aVtt0118301
p1150
aVtt0089424
p1151
aVtt0103035
p1152
aVtt0120791
p1153
aVtt0091939
p1154
aVtt0122459
p1155
aVtt0087968
p1156
aVtt0082495
p1157
aVtt0085210
p1158
aVtt0243736
p1159
aVtt0328099
p1160
aVtt0139654
p1161
aVtt0104257
p1162
aVtt0293815
p1163
aVtt0095742
p1164
aVtt0086567
p1165
aVtt0301470
p1166
aVtt0091024
p1167
aVtt0357413
p1168
aVtt0323642
p1169
aVtt0209958
p1170
aVtt0105323
p1171
aVtt0118617
p1172
aVtt0190138
p1173
aVtt0238546
p1174
aVtt0103241
p1175
aVtt0408524
p1176
aVtt0155975
p1177
aVtt0090927
p1178
aVtt0116322
p1179
aVtt0452694
p1180
aVtt0087363
p1181
aVtt0125664
p1182
aVtt0251075
p1183
aVtt0101523
p1184
aVtt0092099
p1185
aVtt0318627
p1186
aVtt0100140
p1187
aVtt0331632
p1188
aVtt0105428
p1189
aVtt0780571
p1190
aVtt0120832
p1191
aVtt0098524
p1192
aVtt0118972
p1193
aVtt0164184
p1194
aVtt0350258
p1195
aVtt1981115
p1196
aVtt0113442
p1197
aVtt0250720
p1198
aVtt0091445
p1199
aVtt0280707
p1200
aVtt0166485
p1201
aVtt1285016
p1202
aVtt0120595
p1203
aVtt0217869
p1204
aVtt0098442
p1205
aVtt0332452
p1206
aVtt1234719
p1207
aVtt0097276
p1208
aVtt1657507
p1209
aVtt1667889
p1210
aVtt0337579
p1211
aVtt0109040
p1212
aVtt0120623
p1213
aVtt0160916
p1214
aVtt0391198
p1215
aVtt0838283
p1216
aVtt0468569
p1217
aVtt1043726
p1218
aVtt0120755
p1219
aVtt0085640
p1220
aVtt0084855
p1221
aVtt0086425
p1222
aVtt0098519
p1223
aVtt0125439
p1224
aVtt0084787
p1225
aVtt0095687
p1226
aVtt0359950
p1227
aVtt2609758
p1228
aVtt0107665
p1229
aVtt0115986
p1230
aVtt0120632
p1231
aVtt0083806
p1232
aVtt0103956
p1233
aVtt0239948
p1234
aVtt0413099
p1235
aVtt0099582
p1236
aVtt0275022
p1237
aVtt0242423
p1238
aVtt0418647
p1239
aVtt0499549
p1240
aVtt0097351
p1241
aVtt0758730
p1242
aVtt0116830
p1243
aVtt0120917
p1244
aVtt0889573
p1245
aVtt1022603
p1246
aVtt1092026
p1247
aVtt0094739
p1248
aVtt0300051
p1249
aVtt0466342
p1250
aVtt0110006
p1251
aVtt0140379
p1252
aVtt0091653
p1253
aVtt0097328
p1254
aVtt1670345
p1255
aVtt0109297
p1256
aVtt0095409
p1257
aVtt0113497
p1258
aVtt0088170
p1259
aVtt0277296
p1260
aVtt0103016
p1261
aVtt0322259
p1262
aVtt0091877
p1263
aVtt0338459
p1264
aVtt0462322
p1265
aVtt0116908
p1266
aVtt0112281
p1267
aVtt1034303
p1268
aVtt0099726
p1269
aVtt1047494
p1270
aVtt0099348
p1271
aVtt0453467
p1272
aVtt0871426
p1273
aVtt0096316
p1274
aVtt0408985
p1275
aVtt0492044
p1276
aVtt0453556
p1277
aVtt0892769
p1278
aVtt0113987
p1279
aVtt0089087
p1280
aVtt1210166
p1281
aVtt0094744
p1282
aVtt0118556
p1283
aVtt0134619
p1284
aVtt0278488
p1285
aVtt0085482
p1286
aVtt0368709
p1287
aVtt0107977
p1288
aVtt0083798
p1289
aVtt0493430
p1290
aVtt0116329
p1291
aVtt0081353
p1292
aVtt0095956
p1293
aVtt0082136
p1294
aVtt0225071
p1295
aVtt0094964
p1296
aVtt0106246
p1297
aVtt1045658
p1298
aVtt0106582
p1299
aVtt0120800
p1300
aVtt1623288
p1301
aVtt0082926
p1302
aVtt0096463
p1303
aVtt0880578
p1304
aVtt0094799
p1305
aVtt0280460
p1306
aVtt0329028
p1307
aVtt0122690
p1308
aVtt0102719
p1309
aVtt0118883
p1310
aVtt0120184
p1311
aVtt0104265
p1312
aVtt1210042
p1313
aVtt0107207
p1314
aVtt0087800
p1315
aVtt1323594
p1316
aVtt1366344
p1317
aVtt0086927
p1318
aVtt0162222
p1319
aVtt0317132
p1320
aVtt0115956
p1321
aVtt1049413
p1322
aVtt0100157
p1323
aVtt0098625
p1324
aVtt0255819
p1325
aVtt1598822
p1326
aVtt1486185
p1327
aVtt0105435
p1328
aVtt0452637
p1329
aVtt0297037
p1330
aVtt0311429
p1331
aVtt0139462
p1332
aVtt0365957
p1333
aVtt0082927
p1334
aVtt0315297
p1335
aVtt0102798
p1336
aVtt0089643
p1337
aVtt0088850
p1338
aVtt0094332
p1339
aVtt0090022
p1340
aVtt0097366
p1341
aVtt0808151
p1342
aVtt0371746
p1343
aVtt0104346
p1344
aVtt0109836
p1345
aVtt0097179
p1346
aVtt0295427
p1347
aVtt0834001
p1348
aVtt0795461
p1349
aVtt0105265
p1350
aVtt0093437
p1351
aVtt0120787
p1352
aVtt0087263
p1353
aVtt0104009
p1354
aVtt0443453
p1355
aVtt0450259
p1356
aVtt0216216
p1357
aVtt0119008
p1358
aVtt0440963
p1359
aVtt1276104
p1360
aVtt0104695
p1361
aVtt0229260
p1362
aVtt0141926
p1363
aVtt0116705
p1364
aVtt2140373
p1365
aVtt0104073
p1366
aVtt0409182
p1367
aVtt1535109
p1368
aVtt0089218
p1369
aVtt0090357
p1370
aVtt0211181
p1371
aVtt0099141
p1372
aVtt0099892
p1373
aVtt0091059
p1374
aVtt0084920
p1375
aVtt0265086
p1376
aVtt3063516
p1377
aVtt0116095
p1378
aVtt0252501
p1379
aVtt0337909
p1380
aVtt0349205
p1381
aVtt0104231
p1382
aVtt0083967
p1383
aVtt0317705
p1384
aVtt0119668
p1385
aVtt1287468
p1386
aVtt0435761
p1387
aVtt0118971
p1388
aVtt0102460
p1389
aVtt0116225
p1390
aVtt0110684
p1391
aVtt0089941
p1392
aVtt1430626
p1393
aVtt0092608
p1394
aVtt0090856
p1395
aVtt0104928
p1396
aVtt0093186
p1397
aVtt0100301
p1398
aVtt0118688
p1399
aVtt0120094
p1400
aVtt0431197
p1401
aVtt1979320
p1402
aVtt0087482
p1403
aVtt0111301
p1404
aVtt0093966
p1405
aVtt0263488
p1406
aVtt0085919
p1407
aVtt0230011
p1408
aVtt1268799
p1409
aVtt1980209
p1410
aVtt0084865
p1411
aVtt2053463
p1412
aVtt0765446
p1413
aVtt0348836
p1414
aVtt0087332
p1415
aVtt0120844
p1416
aVtt0290002
p1417
aVtt0385726
p1418
aVtt0146882
p1419
aVtt0112722
p1420
aVtt0084021
p1421
aVtt0299172
p1422
aVtt0303714
p1423
aVtt0119654
p1424
aVtt0120663
p1425
aVtt0094006
p1426
aVtt0936501
p1427
aVtt0790724
p1428
aVtt0089118
p1429
aVtt0091306
p1430
aVtt0091557
p1431
aVtt0084445
p1432
aVtt0120461
p1433
aVtt0119094
p1434
aVtt0083131
p1435
aVtt0139134
p1436
aVtt0103064
p1437
aVtt0123964
p1438
aVtt1409024
p1439
aVtt0087718
p1440
aVtt0089603
p1441
aVtt0108185
p1442
aVtt0110066
p1443
aVtt0091983
p1444
aVtt0324216
p1445
aVtt0082770
p1446
aVtt0100029
p1447
aVtt0096933
p1448
aVtt0085276
p1449
aVtt1000774
p1450
aVtt0382992
p1451
aVtt0110678
p1452
aVtt0330373
p1453
aVtt0387131
p1454
aVtt0785006
p1455
aVtt0120696
p1456
aVtt0374900
p1457
aVtt0369339
p1458
aVtt0082009
p1459
aVtt1093908
p1460
aVtt0089670
p1461
aVtt1392170
p1462
aVtt0093660
p1463
aVtt1318514
p1464
aVtt0093058
p1465
aVtt0099762
p1466
aVtt0085244
p1467
aVtt0088931
p1468
aVtt0405469
p1469
aVtt1047540
p1470
aVtt0363988
p1471
aVtt1336608
p1472
aVtt0462538
p1473
aVtt1588173
p1474
aVtt0396592
p1475
aVtt0133952
p1476
aVtt0113041
p1477
aVtt0103251
p1478
aVtt0092076
p1479
aVtt0463854
p1480
aVtt0164052
p1481
aVtt1640484
p1482
aVtt2215285
p1483
aVtt0102768
p1484
aVtt0796366
p1485
aVtt0448011
p1486
aVtt1082868
p1487
aVtt2404463
p1488
aVtt0760329
p1489
aVtt0107050
p1490
aVtt0247638
p1491
aVtt0120603
p1492
aVtt0103112
p1493
aVtt0859163
p1494
aVtt0120179
p1495
aVtt0161100
p1496
aVtt0215129
p1497
aVtt1401152
p1498
aVtt0083851
p1499
aVtt0110366
p1500
aVtt0103874
p1501
aVtt0115759
p1502
aVtt0145660
p1503
aVtt0115685
p1504
aVtt2083355
p1505
aVtt0110475
p1506
aVtt0158811
p1507
aVtt0090103
p1508
aVtt0259288
p1509
aVtt0449010
p1510
aVtt0105629
p1511
aVtt0117038
p1512
aVtt0091993
p1513
aVtt0110186
p1514
aVtt0477347
p1515
aVtt0116130
p1516
aVtt0450232
p1517
aVtt0105585
p1518
aVtt0100944
p1519
aVtt0114781
p1520
aVtt0443706
p1521
aVtt0105793
p1522
aVtt1464174
p1523
aVtt0179626
p1524
aVtt0085333
p1525
aVtt0100666
p1526
aVtt0234829
p1527
aVtt0105698
p1528
aVtt1127884
p1529
aVtt1583421
p1530
aVtt0472198
p1531
aVtt0090966
p1532
aVtt0384793
p1533
aVtt0102065
p1534
aVtt0094293
p1535
aVtt0095882
p1536
aVtt0778661
p1537
aVtt0780653
p1538
aVtt0096203
p1539
aVtt0160862
p1540
aVtt0098308
p1541
aVtt0085398
p1542
aVtt0758746
p1543
aVtt0105690
p1544
aVtt0092948
p1545
aVtt0163988
p1546
aVtt0112642
p1547
aVtt0099472
p1548
aVtt0116126
p1549
aVtt0119190
p1550
aVtt0081178
p1551
aVtt0192614
p1552
aVtt0097123
p1553
aVtt0120776
p1554
aVtt0241527
p1555
aVtt0097499
p1556
aVtt0993842
p1557
aVtt0480249
p1558
aVtt0119718
p1559
aVtt0113481
p1560
aVtt0981227
p1561
aVtt0087727
p1562
aVtt0471042
p1563
aVtt0092699
p1564
aVtt0086510
p1565
aVtt0448157
p1566
aVtt0107254
p1567
aVtt0780504
p1568
aVtt0443274
p1569
aVtt1055369
p1570
aVtt0316356
p1571
aVtt0821640
p1572
aVtt0087062
p1573
aVtt0839980
p1574
aVtt0120655
p1575
aVtt0097211
p1576
aVtt0433362
p1577
aVtt1622547
p1578
aVtt0427152
p1579
aVtt0080474
p1580
aVtt0108333
p1581
aVtt0129167
p1582
aVtt0373883
p1583
aVtt0082198
p1584
aVtt0114194
p1585
aVtt0089886
p1586
aVtt0098320
p1587
aVtt0097165
p1588
aVtt0091605
p1589
aVtt0104409
p1590
aVtt0120890
p1591
aVtt1279935
p1592
aVtt0389860
p1593
aVtt0102175
p1594
aVtt0268397
p1595
aVtt2083383
p1596
aVtt0257568
p1597
aVtt0087032
p1598
aVtt0119282
p1599
aVtt0090060
p1600
aVtt0091042
p1601
aVtt0096969
p1602
aVtt1067106
p1603
aVtt0088933
p1604
aVtt0181316
p1605
aVtt0100114
p1606
aVtt1261945
p1607
aVtt0259446
p1608
aVtt1103153
p1609
aVtt0094631
p1610
aVtt0099819
p1611
aVtt0918927
p1612
aVtt1547234
p1613
aVtt0475276
p1614
aVtt1650043
p1615
aVtt0099654
p1616
aVtt0102685
p1617
aVtt0355295
p1618
aVtt1231580
p1619
aVtt1204342
p1620
aVtt2024544
p1621
aVtt0096487
p1622
aVtt0234215
p1623
aVtt0117571
p1624
aVtt0137363
p1625
aVtt1220634
p1626
aVtt0427229
p1627
aVtt1226273
p1628
aVtt0358349
p1629
aVtt1583420
p1630
aVtt0104438
p1631
aVtt0345950
p1632
aVtt0118887
p1633
aVtt0105151
p1634
aVtt0116756
p1635
aVtt0099088
p1636
aVtt0436697
p1637
aVtt1397280
p1638
aVtt0128442
p1639
aVtt0080556
p1640
aVtt0449059
p1641
aVtt1028576
p1642
aVtt0105417
p1643
aVtt1606378
p1644
aVtt0365737
p1645
aVtt1300854
p1646
aVtt1259521
p1647
aVtt1648179
p1648
aVtt0363547
p1649
aVtt0420238
p1650
aVtt0144120
p1651
aVtt0112715
p1652
aVtt1321870
p1653
aVtt0220506
p1654
aVtt1038919
p1655
aVtt0111143
p1656
aVtt0480242
p1657
aVtt0455499
p1658
aVtt0387564
p1659
aVtt0094142
p1660
aVtt0101301
p1661
aVtt0117108
p1662
aVtt0105706
p1663
aVtt0089686
p1664
aVtt0279778
p1665
aVtt0112679
p1666
aVtt0327084
p1667
aVtt0450340
p1668
aVtt0993846
p1669
aVtt1325004
p1670
aVtt1446714
p1671
aVtt0080549
p1672
aVtt0191754
p1673
aVtt0186566
p1674
aVtt1253864
p1675
aVtt0092035
p1676
aVtt0120768
p1677
aVtt0243155
p1678
aVtt0443649
p1679
aVtt0884328
p1680
aVtt0092890
p1681
aVtt0121164
p1682
aVtt0090830
p1683
aVtt0093886
p1684
aVtt0089155
p1685
aVtt0080855
p1686
aVtt0489270
p1687
aVtt0091541
p1688
aVtt0472062
p1689
aVtt0309698
p1690
aVtt0207201
p1691
aVtt0762121
p1692
aVtt0349683
p1693
aVtt0100758
p1694
aVtt0097647
p1695
aVtt0081400
p1696
aVtt0278435
p1697
aVtt0116731
p1698
aVtt0212338
p1699
aVtt0114682
p1700
aVtt0120812
p1701
aVtt0114857
p1702
aVtt0134067
p1703
aVtt2609912
p1704
aVtt0830515
p1705
aVtt1320253
p1706
aVtt0108473
p1707
aVtt0386117
p1708
aVtt0093105
p1709
aVtt0120770
p1710
aVtt0423294
p1711
aVtt0089385
p1712
aVtt0110216
p1713
aVtt0118708
p1714
aVtt0486578
p1715
aVtt0892791
p1716
aVtt0105813
p1717
aVtt1243957
p1718
aVtt0980970
p1719
aVtt0104412
p1720
aVtt0090605
p1721
aVtt0388500
p1722
aVtt0089200
p1723
aVtt0082053
p1724
aVtt0091129
p1725
aVtt0300471
p1726
aVtt0491152
p1727
aVtt0281373
p1728
aVtt0092563
p1729
aVtt0094074
p1730
aVtt0113114
p1731
aVtt0096332
p1732
aVtt0098663
p1733
aVtt0167190
p1734
aVtt0120609
p1735
aVtt0086346
p1736
aVtt0120662
p1737
aVtt0092804
p1738
aVtt0104040
p1739
aVtt0094082
p1740
aVtt0084412
p1741
aVtt0120751
p1742
aVtt0271027
p1743
aVtt0101764
p1744
aVtt0477080
p1745
aVtt0120738
p1746
aVtt0486576
p1747
aVtt0114814
p1748
aVtt0187738
p1749
aVtt0102411
p1750
aVtt0264395
p1751
aVtt0351283
p1752
aVtt0108560
p1753
aVtt0111257
p1754
aVtt0430105
p1755
aVtt0099334
p1756
aVtt0298130
p1757
aVtt1599348
p1758
aVtt0090329
p1759
aVtt0824747
p1760
aVtt0383574
p1761
aVtt1386703
p1762
aVtt1598778
p1763
aVtt0825232
p1764
aVtt0085852
p1765
aVtt0094731
p1766
aVtt1462769
p1767
aVtt0762125
p1768
aVtt0116168
p1769
aVtt0110932
p1770
aVtt0084434
p1771
aVtt1907668
p1772
aVtt0084732
p1773
aVtt0086979
p1774
aVtt0134084
p1775
aVtt0287717
p1776
aVtt1790886
p1777
aVtt1482459
p1778
aVtt0284490
p1779
aVtt0417148
p1780
aVtt0085382
p1781
aVtt0881891
p1782
aVtt0084726
p1783
aVtt0089880
p1784
aVtt0105327
p1785
aVtt0113198
p1786
aVtt1023481
p1787
aVtt0091635
p1788
aVtt0410297
p1789
aVtt0130018
p1790
aVtt0090350
p1791
aVtt0084395
p1792
aVtt0083642
p1793
aVtt0087843
p1794
aVtt1077368
p1795
aVtt0109635
p1796
aVtt0267891
p1797
aVtt0093629
p1798
aVtt0366548
p1799
aVtt0108539
p1800
aVtt0134273
p1801
aVtt0097458
p1802
aVtt0115963
p1803
aVtt0101590
p1804
aVtt0373051
p1805
aVtt0141098
p1806
aVtt0095107
p1807
aVtt0263757
p1808
aVtt0094921
p1809
aVtt0127723
p1810
aVtt0122151
p1811
aVtt0963966
p1812
aVtt0421729
p1813
aVtt0116209
p1814
aVtt0088258
p1815
aVtt0369735
p1816
aVtt0092105
p1817
aVtt0119080
p1818
aVtt0476964
p1819
aVtt1343092
p1820
aVtt0343135
p1821
aVtt0110123
p1822
aVtt0109120
p1823
aVtt0095593
p1824
aVtt0083658
p1825
aVtt1499658
p1826
aVtt0111256
p1827
aVtt1821694
p1828
aVtt0093780
p1829
aVtt0758752
p1830
aVtt0098051
p1831
aVtt0110391
p1832
aVtt0096454
p1833
aVtt1335975
p1834
aVtt1228705
p1835
aVtt0143145
p1836
aVtt0104431
p1837
aVtt0120877
p1838
aVtt0227445
p1839
aVtt0095963
p1840
aVtt0093036
p1841
aVtt0245686
p1842
aVtt0465538
p1843
aVtt1386588
p1844
aVtt0081562
p1845
aVtt0086200
p1846
aVtt1033575
p1847
aVtt0397313
p1848
aVtt0241760
p1849
aVtt0119173
p1850
aVtt0118661
p1851
aVtt0119345
p1852
aVtt0320691
p1853
aVtt0172495
p1854
aVtt0978764
p1855
aVtt0373889
p1856
aVtt0240890
p1857
aVtt0316732
p1858
aVtt0956038
p1859
aVtt2226417
p1860
aVtt0389722
p1861
aVtt0086190
p1862
aVtt0293564
p1863
aVtt0099091
p1864
aVtt0122718
p1865
aVtt0203019
p1866
aVtt0094118
p1867
aVtt0100802
p1868
aVtt0099653
p1869
aVtt0297181
p1870
aVtt0100240
p1871
aVtt0090685
p1872
aVtt0366174
p1873
aVtt0089853
p1874
aVtt0094137
p1875
aVtt0112688
p1876
aVtt0094862
p1877
aVtt0120815
p1878
aVtt0092272
p1879
aVtt1464540
p1880
aVtt0373926
p1881
aVtt0358135
p1882
aVtt0349903
p1883
aVtt0114681
p1884
aVtt0107286
p1885
aVtt0089913
p1886
aVtt0107969
p1887
aVtt1345836
p1888
aVtt0418763
p1889
aVtt0094746
p1890
aVtt0452625
p1891
aVtt0227538
p1892
aVtt0086619
p1893
aVtt0087298
p1894
aVtt1080016
p1895
aVtt0375210
p1896
aVtt1661382
p1897
aVtt0116213
p1898
aVtt0337921
p1899
aVtt0398375
p1900
aVtt0116695
p1901
aVtt0102059
p1902
aVtt0091991
p1903
aVtt0106466
p1904
aVtt0280030
p1905
aVtt0081635
p1906
aVtt0316396
p1907
aVtt0091474
p1908
aVtt0209163
p1909
aVtt0421715
p1910
aVtt0901476
p1911
aVtt1037705
p1912
aVtt2404311
p1913
aVtt0454876
p1914
aVtt0094898
p1915
aVtt0433035
p1916
aVtt0457939
p1917
aVtt0091738
p1918
aVtt0109891
p1919
aVtt0115641
p1920
aVtt0120855
p1921
aVtt1517489
p1922
aVtt0090142
p1923
aVtt0111693
p1924
aVtt1399103
p1925
aVtt0120772
p1926
aVtt1320261
p1927
aVtt0082533
p1928
aVtt0177789
p1929
aVtt0120032
p1930
aVtt0167261
p1931
aVtt0100436
p1932
aVtt0132512
p1933
aVtt0094812
p1934
aVtt0110950
p1935
aVtt0486822
p1936
aVtt0101452
p1937
aVtt0477051
p1938
aVtt0101746
p1939
aVtt2334879
p1940
aVtt0083866
p1941
aVtt0092925
p1942
aVtt0099699
p1943
aVtt0104348
p1944
aVtt0098554
p1945
aVtt0128853
p1946
aVtt0377062
p1947
aVtt0264472
p1948
aVtt1116184
p1949
aVtt0090264
p1950
aVtt1201607
p1951
aVtt2378281
p1952
aVtt0104573
p1953
aVtt0117891
p1954
aVtt1231583
p1955
aVtt0109813
p1956
aVtt0120053
p1957
aVtt0185431
p1958
aVtt1314655
p1959
aVtt0101507
p1960
aVtt1621039
p1961
aVtt0318974
p1962
aVtt0119951
p1963
aVtt1630036
p1964
aVtt1951261
p1965
aVtt1616195
p1966
aVtt0445922
p1967
aVtt0081777
p1968
aVtt0429589
p1969
aVtt0102631
p1970
aVtt0086356
p1971
aVtt0099800
p1972
aVtt0097050
p1973
aVtt1216475
p1974
aVtt0116654
p1975
aVtt0117731
p1976
aVtt1179056
p1977
aVtt0329575
p1978
aVtt0112740
p1979
aVtt0814335
p1980
aVtt0209475
p1981
aVtt0093278
p1982
aVtt1078912
p1983
aVtt1702443
p1984
aVtt0111686
p1985
aVtt1457767
p1986
aVtt0085636
p1987
aVtt1385912
p1988
aVtt0473075
p1989
aVtt0162983
p1990
aVtt0108052
p1991
aVtt0087980
p1992
aVtt0963178
p1993
aVtt0092513
p1994
aVtt0292506
p1995
aVtt1067583
p1996
aVtt0119675
p1997
aVtt0128445
p1998
aVtt0098635
p1999
aVtt0119488
p2000
aVtt0393162
p2001
aVtt0103671
p2002
aVtt0184894
p2003
aVtt0084805
p2004
aVtt0878804
p2005
aVtt0107034
p2006
aVtt0085894
p2007
aVtt0395699
p2008
aVtt0413267
p2009
aVtt2302755
p2010
aVtt0092718
p2011
aVtt0098987
p2012
aVtt0758766
p2013
aVtt1046173
p2014
aVtt0117894
p2015
aVtt0090886
p2016
aVtt0420294
p2017
aVtt0107985
p2018
aVtt0093822
p2019
aVtt0101862
p2020
aVtt0142342
p2021
aVtt0104187
p2022
aVtt0093260
p2023
aVtt0111070
p2024
aVtt0090015
p2025
aVtt0091637
p2026
aVtt1815862
p2027
aVtt0108071
p2028
aVtt0083260
p2029
aVtt1136608
p2030
aVtt0096874
p2031
aVtt0245674
p2032
aVtt0410377
p2033
aVtt0109021
p2034
aVtt0248667
p2035
aVtt1229340
p2036
aVtt0095304
p2037
aVtt0308506
p2038
aVtt0086312
p2039
aVtt0088889
p2040
aVtt0099810
p2041
aVtt0120318
p2042
aVtt1124035
p2043
aVtt0102945
p2044
aVtt0093565
p2045
aVtt0087428
p2046
aVtt1284575
p2047
aVtt1263670
p2048
aVtt1430607
p2049
aVtt0338013
p2050
aVtt0114608
p2051
aVtt0401792
p2052
aVtt0095489
p2053
aVtt0099785
p2054
aVtt1392197
p2055
aVtt0098439
p2056
aVtt0081529
p2057
aVtt0173840
p2058
aVtt0325710
p2059
aVtt0094721
p2060
aVtt0107057
p2061
aVtt0086998
p2062
aVtt0098621
p2063
aVtt0452598
p2064
aVtt0108238
p2065
aVtt0087277
p2066
aVtt0106226
p2067
aVtt0454921
p2068
aVtt0119731
p2069
aVtt0187819
p2070
aVtt0424993
p2071
aVtt0441773
p2072
aVtt0384806
p2073
aVtt0343737
p2074
aVtt1800241
p2075
aVtt0800039
p2076
aVtt0367594
p2077
aVtt0120693
p2078
aVtt0089841
p2079
aVtt0093409
p2080
aVtt0330793
p2081
aVtt1538403
p2082
aVtt0107554
p2083
aVtt1302011
p2084
aVtt0103978
p2085
aVtt0107048
p2086
aVtt0348150
p2087
aVtt0110357
p2088
aVtt0100814
p2089
aVtt0102526
p2090
aVtt1411704
p2091
aVtt0091188
p2092
aVtt0109951
p2093
aVtt1405500
p2094
aVtt0090056
p2095
aVtt0116000
p2096
aVtt0104254
p2097
aVtt0285823
p2098
aVtt0396269
p2099
aVtt0091178
p2100
aVtt2109184
p2101
aVtt0890870
p2102
aVtt0400497
p2103
aVtt0208003
p2104
aVtt0184858
p2105
aVtt0097815
p2106
aVtt0822832
p2107
aVtt0118884
p2108
aVtt0325980
p2109
aVtt0398808
p2110
aVtt0092605
p2111
aVtt0113957
p2112
aVtt0088814
p2113
aVtt0765010
p2114
aVtt0086973
p2115
aVtt0432348
p2116
aVtt0120889
p2117
aVtt0111756
p2118
aVtt0371724
p2119
aVtt0253754
p2120
aVtt0118615
p2121
aVtt0780521
p2122
aVtt0369441
p2123
aVtt1133985
p2124
aVtt0111503
p2125
aVtt0095179
p2126
aVtt0117381
p2127
aVtt0375063
p2128
aVtt0100168
p2129
aVtt1440129
p2130
aVtt0430922
p2131
aVtt0109890
p2132
aVtt0988595
p2133
aVtt0172156
p2134
aVtt0848537
p2135
aVtt0397535
p2136
aVtt0108186
p2137
aVtt0103596
p2138
aVtt0146838
p2139
aVtt0104952
p2140
aVtt0081633
p2141
aVtt0099700
p2142
aVtt0304669
p2143
aVtt0120794
p2144
aVtt0158622
p2145
aVtt0088915
p2146
aVtt0455824
p2147
aVtt0116311
p2148
aVtt0091310
p2149
aVtt1389137
p2150
aVtt0083694
p2151
aVtt0445934
p2152
aVtt0250310
p2153
aVtt0088930
p2154
aVtt0081187
p2155
aVtt0428803
p2156
aVtt0183523
p2157
aVtt0098188
p2158
aVtt0099615
p2159
aVtt0382932
p2160
aVtt0108147
p2161
aVtt0092997
p2162
aVtt0960144
p2163
aVtt0086491
p2164
aVtt0092005
p2165
aVtt0395169
p2166
aVtt0117318
p2167
aVtt0290334
p2168
aVtt0340855
p2169
aVtt0277371
p2170
aVtt0102469
p2171
aVtt0093378
p2172
aVtt0393735
p2173
aVtt1564349
p2174
aVtt0498399
p2175
aVtt0467406
p2176
aVtt0107889
p2177
aVtt1854564
p2178
aVtt0247425
p2179
aVtt0296572
p2180
aVtt0379725
p2181
aVtt0083099
p2182
aVtt0407887
p2183
aVtt0100405
p2184
aVtt0089092
p2185
aVtt0098282
p2186
aVtt1800741
p2187
aVtt0100994
p2188
aVtt0166813
p2189
aVtt0120338
p2190
aVtt0399201
p2191
aVtt0190865
p2192
aVtt0093177
p2193
aVtt0101889
p2194
aVtt0105466
p2195
aVtt0328589
p2196
aVtt0098097
p2197
aVtt0088847
p2198
aVtt0092133
p2199
aVtt1392214
p2200
aVtt1488555
p2201
aVtt0109287
p2202
aVtt0108171
p2203
aVtt0084602
p2204
aVtt1905041
p2205
aVtt0095690
p2206
aVtt0112499
p2207
aVtt1198138
p2208
aVtt0251413
p2209
aVtt0322330
p2210
aVtt0272152
p2211
aVtt0110527
p2212
aVtt0113552
p2213
aVtt0118749
p2214
aVtt0092106
p2215
aVtt0286788
p2216
aVtt0080913
p2217
aVtt0282209
p2218
aVtt1483013
p2219
aVtt0278504
p2220
aVtt0422093
p2221
aVtt0092226
p2222
aVtt0118570
p2223
aVtt0082945
p2224
aVtt0400717
p2225
aVtt1226229
p2226
aVtt0090768
p2227
aVtt0309377
p2228
aVtt0174856
p2229
aVtt0096446
p2230
aVtt0208874
p2231
aVtt0328828
p2232
aVtt0109127
p2233
aVtt0087921
p2234
aVtt0112508
p2235
aVtt0093011
p2236
aVtt1306980
p2237
aVtt0109444
p2238
aVtt1195478
p2239
aVtt0822854
p2240
aVtt0118880
p2241
aVtt0105104
p2242
aVtt0091209
p2243
aVtt0790736
p2244
aVtt0101775
p2245
aVtt0338466
p2246
aVtt0430308
p2247
aVtt1690953
p2248
aVtt0490084
p2249
aVtt0117666
p2250
aVtt0192731
p2251
aVtt0361748
p2252
aVtt0120082
p2253
aVtt0089543
p2254
aVtt0942385
p2255
aVtt0097965
p2256
aVtt0105128
p2257
aVtt1855199
p2258
aVtt0116583
p2259
aVtt0095889
p2260
aVtt0383010
p2261
aVtt0116250
p2262
aVtt0120169
p2263
aVtt0122933
p2264
aVtt0123987
p2265
aVtt0104850
p2266
aVtt0381707
p2267
aVtt0377471
p2268
aVtt0133240
p2269
aVtt0110737
p2270
aVtt0455407
p2271
aVtt0119116
p2272
aVtt2070862
p2273
aVtt0094606
p2274
aVtt0191397
p2275
aVtt0418279
p2276
aVtt1060277
p2277
aVtt0106770
p2278
aVtt0082846
p2279
aVtt0109676
p2280
aVtt0316465
p2281
aVtt0118665
p2282
aVtt0100143
p2283
aVtt0119303
p2284
aVtt1230414
p2285
aVtt0089560
p2286
aVtt0112857
p2287
aVtt0082252
p2288
aVtt0101669
p2289
aVtt0112818
p2290
aVtt0200027
p2291
aVtt0204175
p2292
aVtt0096754
p2293
aVtt0108160
p2294
aVtt0343818
p2295
aVtt1454029
p2296
aVtt0416236
p2297
aVtt0120596
p2298
aVtt0800320
p2299
aVtt1564367
p2300
aVtt0120891
p2301
aVtt1772341
p2302
aVtt0171363
p2303
aVtt1415283
p2304
aVtt0275847
p2305
aVtt0482571
p2306
aVtt0088247
p2307
aVtt1193631
p2308
aVtt0113347
p2309
aVtt0101984
p2310
aVtt0159273
p2311
aVtt0378194
p2312
aVtt0098319
p2313
aVtt0094933
p2314
aVtt0082402
p2315
aVtt0118689
p2316
aVtt0117091
p2317
aVtt1385826
p2318
aVtt0138097
p2319
aVtt0416212
p2320
aVtt0118715
p2321
aVtt1712170
p2322
aVtt0090655
p2323
aVtt0346491
p2324
aVtt0107818
p2325
aVtt0097626
p2326
aVtt1250777
p2327
aVtt0081433
p2328
aVtt0119994
p2329
aVtt0116514
p2330
aVtt0852713
p2331
aVtt0236388
p2332
aVtt0090887
p2333
aVtt0102517
p2334
aVtt0092644
p2335
aVtt0338188
p2336
aVtt0098260
p2337
aVtt0104694
p2338
aVtt0111400
p2339
aVtt1694020
p2340
aVtt0105699
p2341
aVtt0285742
p2342
aVtt0356910
p2343
aVtt0113303
p2344
aVtt1853728
p2345
aVtt0278295
p2346
aVtt0327137
p2347
aVtt0091159
p2348
aVtt0377818
p2349
aVtt0098343
p2350
aVtt0092214
p2351
aVtt0099204
p2352
aVtt0892782
p2353
aVtt0114746
p2354
aVtt1637688
p2355
aVtt1931435
p2356
aVtt0087091
p2357
aVtt1515091
p2358
aVtt0119896
p2359
aVtt0119142
p2360
aVtt0090206
p2361
aVtt0080360
p2362
aVtt0482603
p2363
aVtt0120630
p2364
aVtt0090203
p2365
aVtt0086374
p2366
aVtt0117603
p2367
aVtt0105415
p2368
aVtt0388482
p2369
aVtt0101545
p2370
aVtt0095599
p2371
aVtt0091554
p2372
aVtt0455857
p2373
aVtt0089791
p2374
aVtt0305396
p2375
aVtt0099423
p2376
aVtt0108002
p2377
aVtt0089393
p2378
aVtt0260866
p2379
aVtt0093793
p2380
aVtt0233469
p2381
aVtt0093493
p2382
aVtt0163862
p2383
aVtt0351977
p2384
aVtt1220198
p2385
aVtt0107004
p2386
aVtt1129442
p2387
aVtt0102250
p2388
aVtt0446046
p2389
aVtt0098627
p2390
aVtt0185014
p2391
aVtt1615065
p2392
aVtt0097044
p2393
aVtt0096098
p2394
aVtt0117333
p2395
aVtt0091790
p2396
aVtt0098115
p2397
aVtt0120780
p2398
aVtt0137494
p2399
aVtt0449088
p2400
aVtt0116320
p2401
aVtt0096244
p2402
aVtt0109439
p2403
aVtt0367882
p2404
aVtt0479884
p2405
aVtt1334512
p2406
aVtt0095647
p2407
aVtt0113253
p2408
aVtt0104389
p2409
aVtt0103924
p2410
aVtt0113820
p2411
aVtt0097637
p2412
aVtt0115639
p2413
aVtt0483726
p2414
aVtt0114576
p2415
aVtt0408839
p2416
aVtt0109254
p2417
aVtt0084809
p2418
aVtt0093428
p2419
aVtt0104797
p2420
aVtt0437863
p2421
aVtt0162650
p2422
aVtt0107413
p2423
aVtt0268995
p2424
aVtt0119229
p2425
aVtt0114436
p2426
aVtt0457510
p2427
aVtt0104558
p2428
aVtt0107120
p2429
aVtt0099575
p2430
aVtt0083629
p2431
aVtt0252503
p2432
aVtt1922777
p2433
aVtt0114319
p2434
aVtt1190080
p2435
aVtt0219653
p2436
aVtt0280486
p2437
aVtt0307453
p2438
aVtt0096895
p2439
aVtt1436562
p2440
aVtt0100403
p2441
aVtt0090756
p2442
aVtt0364751
p2443
aVtt1731141
p2444
aVtt0119848
p2445
aVtt0251127
p2446
aVtt1001508
p2447
aVtt0094612
p2448
aVtt0390022
p2449
aVtt0114011
p2450
aVtt1504320
p2451
aVtt0120679
p2452
aVtt0765429
p2453
aVtt0113228
p2454
aVtt0107501
p2455
aVtt0120784
p2456
aVtt0167404
p2457
aVtt0372588
p2458
aVtt0327850
p2459
aVtt1129423
p2460
aVtt1586265
p2461
aVtt0380510
p2462
aVtt0384537
p2463
aVtt0097937
p2464
aVtt0187393
p2465
aVtt0422774
p2466
aVtt0338751
p2467
aVtt0087050
p2468
aVtt0274166
p2469
aVtt0124718
p2470
aVtt1298649
p2471
aVtt0970416
p2472
aVtt0095169
p2473
aVtt0200550
p2474
aVtt0113097
p2475
aVtt0111418
p2476
aVtt0306685
p2477
aVtt0163639
p2478
aVtt0097235
p2479
aVtt0337697
p2480
aVtt0372237
p2481
aVtt0161083
p2482
aVtt0099703
p2483
aVtt2294629
p2484
aVtt0116409
p2485
aVtt0219965
p2486
aVtt0457430
p2487
aVtt0141109
p2488
aVtt1375670
p2489
aVtt0097576
p2490
aVtt1033643
p2491
aVtt0093640
p2492
aVtt0119141
p2493
aVtt0132477
p2494
aVtt0338337
p2495
aVtt0086960
p2496
aVtt0093185
p2497
aVtt0126029
p2498
aVtt0100477
p2499
aVtt0120762
p2500
aVtt0795421
p2501
aVtt0332280
p2502
aVtt0245844
p2503
aVtt1135487
p2504
aVtt0088885
p2505
aVtt0094947
p2506
aVtt0086250
p2507
aVtt0095638
p2508
aVtt1152836
p2509
aVtt0093476
p2510
aVtt0120142
p2511
aVtt0213149
p2512
aVtt0458525
p2513
aVtt0385267
p2514
aVtt0844708
p2515
aVtt0398286
p2516
aVtt0086216
p2517
aVtt0102266
p2518
aVtt0080761
p2519
aVtt0086006
p2520
aVtt0790628
p2521
aVtt1396218
p2522
aVtt0327597
p2523
aVtt0099371
p2524
aVtt0097138
p2525
aVtt0212985
p2526
aVtt0082801
p2527
aVtt0120773
p2528
aVtt0139414
p2529
aVtt1219289
p2530
aVtt0092710
p2531
aVtt1027718
p2532
aVtt0406816
p2533
aVtt0102492
p2534
aVtt0099697
p2535
aVtt0246002
p2536
aVtt0087892
p2537
aVtt0109506
p2538
aVtt0313737
p2539
aVtt0119081
p2540
aVtt0231402
p2541
aVtt0097733
p2542
aVtt0099710
p2543
aVtt0107362
p2544
aVtt1119646
p2545
aVtt0102070
p2546
aVtt0283426
p2547
aVtt0970866
p2548
aVtt1535108
p2549
aVtt1212436
p2550
aVtt0111161
p2551
aVtt0371246
p2552
aVtt0108101
p2553
aVtt0118571
p2554
aVtt1606389
p2555
aVtt0090863
p2556
aVtt1179891
p2557
aVtt0088000
p2558
aVtt0130623
p2559
aVtt0119432
p2560
aVtt0328107
p2561
aVtt0339291
p2562
aVtt1055292
p2563
aVtt0186894
p2564
aVtt0110971
p2565
aVtt0472033
p2566
aVtt0104714
p2567
aVtt0091396
p2568
aVtt0101516
p2569
aVtt0087365
p2570
aVtt0259324
p2571
aVtt0109456
p2572
aVtt0080436
p2573
aVtt0087747
p2574
aVtt0087469
p2575
aVtt0317198
p2576
aVtt0102926
p2577
aVtt1229238
p2578
aVtt0289848
p2579
aVtt0451079
p2580
aVtt0101492
p2581
aVtt0106856
p2582
aVtt0103772
p2583
aVtt0095776
p2584
aVtt0485985
p2585
aVtt0093756
p2586
aVtt0976238
p2587
aVtt0085218
p2588
aVtt0119528
p2589
aVtt0095253
p2590
aVtt0816711
p2591
aVtt0100135
p2592
aVtt0232500
p2593
aVtt0108442
p2594
aVtt0199753
p2595
aVtt0119874
p2596
aVtt0465580
p2597
aVtt0100828
p2598
aVtt0277434
p2599
aVtt0195685
p2600
aVtt0107614
p2601
aVtt0139699
p2602
aVtt0269341
p2603
aVtt0107688
p2604
aVtt1673434
p2605
aVtt0106453
p2606
aVtt0145531
p2607
aVtt0104437
p2608
aVtt0346156
p2609
aVtt0119395
p2610
aVtt0947810
p2611
aVtt0116531
p2612
aVtt1282140
p2613
aVtt0089730
p2614
aVtt0116287
p2615
aVtt0171580
p2616
aVtt0408345
p2617
aVtt0106977
p2618
aVtt0163983
p2619
aVtt0091763
p2620
aVtt0094078
p2621
aVtt0337563
p2622
aVtt0445990
p2623
aVtt0111732
p2624
aVtt1135084
p2625
aVtt0110771
p2626
aVtt0313542
p2627
aVtt1193138
p2628
aVtt0481499
p2629
aVtt1007028
p2630
aVtt0097441
p2631
aVtt0110428
p2632
aVtt0085549
p2633
aVtt0088172
p2634
aVtt0108525
p2635
aVtt0116552
p2636
aVtt0117705
p2637
aVtt1265990
p2638
aVtt0097778
p2639
aVtt0107863
p2640
aVtt0357507
p2641
aVtt0762107
p2642
aVtt0099077
p2643
aVtt0473705
p2644
aVtt0276751
p2645
aVtt1222815
p2646
aVtt0382077
p2647
aVtt0349825
p2648
aVtt0080455
p2649
aVtt0116483
p2650
aVtt0120689
p2651
aVtt0106375
p2652
aVtt0113277
p2653
aVtt1985966
p2654
aVtt0177971
p2655
aVtt0164181
p2656
aVtt0492956
p2657
aVtt0088851
p2658
aVtt0200465
p2659
aVtt0090583
p2660
aVtt0244970
p2661
aVtt0102744
p2662
aVtt0098084
p2663
aVtt0147800
p2664
aVtt0035423
p2665
aVtt0117608
p2666
aVtt0790686
p2667
aVtt0084354
p2668
aVtt0295297
p2669
aVtt0086066
p2670
aVtt0120912
p2671
aVtt0097142
p2672
aVtt0120201
p2673
aVtt0204946
p2674
aVtt0101694
p2675
aVtt0120686
p2676
aVtt0095953
p2677
aVtt0160797
p2678
aVtt0317219
p2679
aVtt0268978
p2680
aVtt0112401
p2681
aVtt0101787
p2682
aVtt0376541
p2683
aVtt0087835
p2684
aVtt0098258
p2685
aVtt0104868
p2686
aVtt0376994
p2687
aVtt0407304
p2688
aVtt0184907
p2689
aVtt0114694
p2690
aVtt1915581
p2691
aVtt0093777
p2692
aVtt0101393
p2693
aVtt0098536
p2694
aVtt0112579
p2695
aVtt0091167
p2696
aVtt0479143
p2697
aVtt0120783
p2698
aVtt0097053
p2699
aVtt0937375
p2700
aVtt0120616
p2701
aVtt2023453
p2702
aVtt0104466
p2703
aVtt0258463
p2704
aVtt0087781
p2705
aVtt0104006
p2706
aVtt0107808
p2707
aVtt0119099
p2708
aVtt0120885
p2709
aVtt0258000
p2710
aVtt0101414
p2711
aVtt0461770
p2712
aVtt0157472
p2713
aVtt0414387
p2714
aVtt0088414
p2715
aVtt0084827
p2716
aVtt0096794
p2717
aVtt0985699
p2718
aVtt0228750
p2719
aVtt0112792
p2720
aVtt0240462
p2721
aVtt0117057
p2722
aVtt0102593
p2723
aVtt1204975
p2724
aVtt0421206
p2725
aVtt0242445
p2726
aVtt0099422
p2727
aVtt0100232
p2728
aVtt0329717
p2729
aVtt0367959
p2730
aVtt0099739
p2731
aVtt0094890
p2732
aVtt0155267
p2733
aVtt0115645
p2734
aVtt0107504
p2735
aVtt0997047
p2736
aVtt0138524
p2737
aVtt0118055
p2738
aVtt0230838
p2739
aVtt0130121
p2740
aVtt0100280
p2741
aVtt1855325
p2742
aVtt0119314
p2743
aVtt1615918
p2744
aVtt0360486
p2745
aVtt1650554
p2746
aVtt1059786
p2747
aVtt0093690
p2748
aVtt2387559
p2749
aVtt0116277
p2750
aVtt0105112
p2751
aVtt0298814
p2752
aVtt0088846
p2753
aVtt0926084
p2754
aVtt0104070
p2755
aVtt0264464
p2756
aVtt0082694
p2757
aVtt1153706
p2758
aVtt0337711
p2759
aVtt1876451
p2760
aVtt0087262
p2761
aVtt0133093
p2762
aVtt0290296
p2763
aVtt0113845
p2764
aVtt0397065
p2765
aVtt0087337
p2766
aVtt0452608
p2767
aVtt0499448
p2768
aVtt0242998
p2769
aVtt0082398
p2770
aVtt1666186
p2771
aVtt1735898
p2772
aVtt0810913
p2773
aVtt0116996
p2774
aVtt0083511
p2775
aVtt1637725
p2776
aVtt0082340
p2777
aVtt0311289
p2778
aVtt0108551
p2779
aVtt0264935
p2780
aVtt0317648
p2781
aVtt0086022
p2782
aVtt0489099
p2783
aVtt0089601
p2784
aVtt0099871
p2785
aVtt0103747
p2786
aVtt0223897
p2787
aVtt0425430
p2788
aVtt0085863
p2789
aVtt0089755
p2790
aVtt0097027
p2791
aVtt0115697
p2792
aVtt0479952
p2793
aVtt0117008
p2794
aVtt0094701
p2795
aVtt1764651
p2796
aVtt0092007
p2797
aVtt1045778
p2798
aVtt0480687
p2799
aVtt0116151
p2800
aVtt0840361
p2801
aVtt1020876
p2802
aVtt0814255
p2803
aVtt0257360
p2804
aVtt0185183
p2805
aVtt1142988
p2806
aVtt1605630
p2807
aVtt0112819
p2808
aVtt0117060
p2809
aVtt0120008
p2810
aVtt1179904
p2811
aVtt0329101
p2812
aVtt0312528
p2813
aVtt0084675
p2814
aVtt0099128
p2815
aVtt0117247
p2816
aVtt0381061
p2817
aVtt0099938
p2818
aVtt0113161
p2819
aVtt0107507
p2820
aVtt0302640
p2821
aVtt0329774
p2822
aVtt0195714
p2823
aVtt0144214
p2824
aVtt0083542
p2825
aVtt0384642
p2826
aVtt0119978
p2827
aVtt1142977
p2828
aVtt0120903
p2829
aVtt0443543
p2830
aVtt0100201
p2831
aVtt0119664
p2832
aVtt0108399
p2833
aVtt1186367
p2834
aVtt0100514
p2835
aVtt0413300
p2836
aVtt0086154
p2837
aVtt1132626
p2838
aVtt0113305
p2839
aVtt0985694
p2840
aVtt0100611
p2841
aVtt0080319
p2842
aVtt0457400
p2843
aVtt0105483
p2844
aVtt0101761
p2845
aVtt0110093
p2846
aVtt1245526
p2847
aVtt2024432
p2848
aVtt0288477
p2849
aVtt0095990
p2850
aVtt0325258
p2851
aVtt0118798
p2852
aVtt0094963
p2853
aVtt0105481
p2854
aVtt0110167
p2855
aVtt0117887
p2856
aVtt0108037
p2857
aVtt0102713
p2858
aVtt0122541
p2859
aVtt0431021
p2860
aVtt0948470
p2861
aVtt0106500
p2862
aVtt0093773
p2863
aVtt0385752
p2864
aVtt0094072
p2865
aVtt0107144
p2866
aVtt0093277
p2867
aVtt0282120
p2868
aVtt0163187
p2869
aVtt0093415
p2870
aVtt0120915
p2871
aVtt0083064
p2872
aVtt0104897
p2873
aVtt0240772
p2874
aVtt0100212
p2875
aVtt1438254
p2876
aVtt1582507
p2877
aVtt0145487
p2878
aVtt0086450
p2879
aVtt0303933
p2880
aVtt0101921
p2881
aVtt0113321
p2882
aVtt0172493
p2883
aVtt0094889
p2884
aVtt0093209
p2885
aVtt1126591
p2886
aVtt0091814
p2887
aVtt0100935
p2888
aVtt0097322
p2889
aVtt0221027
p2890
aVtt0099528
p2891
aVtt0102749
p2892
aVtt0082783
p2893
aVtt0367479
p2894
aVtt0108451
p2895
aVtt2334873
p2896
aVtt0424823
p2897
aVtt0116253
p2898
aVtt0085208
p2899
aVtt1327773
p2900
aVtt1411697
p2901
aVtt1646987
p2902
aVtt0086355
p2903
aVtt0087003
p2904
aVtt0129387
p2905
aVtt0082418
p2906
aVtt0265459
p2907
aVtt0467110
p2908
aVtt1127180
p2909
aVtt0110997
p2910
aVtt0133152
p2911
aVtt0080492
p2912
aVtt0417741
p2913
aVtt0191133
p2914
aVtt0090180
p2915
aVtt0088939
p2916
aVtt0489237
p2917
aVtt0265632
p2918
aVtt1817273
p2919
aVtt0170016
p2920
aVtt0472043
p2921
aVtt0493464
p2922
aVtt0087951
p2923
aVtt0091225
p2924
aVtt0103939
p2925
aVtt0405159
p2926
aVtt0467197
p2927
aVtt1068242
p2928
aVtt0142688
p2929
aVtt0119807
p2930
aVtt0350028
p2931
aVtt0120363
p2932
aVtt0099674
p2933
aVtt1621045
p2934
aVtt0102370
p2935
aVtt0438488
p2936
aVtt0087538
p2937
aVtt0206275
p2938
a.