(lp1
Vtt0245280
p2
aVtt0100232
p3
aVtt1464174
p4
aVtt0097216
p5
aVtt0103747
p6
aVtt0120647
p7
aVtt0339291
p8
aVtt0109830
p9
aVtt0343737
p10
aVtt0089822
p11
aVtt0400497
p12
aVtt0105391
p13
aVtt0094890
p14
aVtt0455824
p15
aVtt0253474
p16
aVtt0815236
p17
aVtt0105104
p18
aVtt0085750
p19
aVtt0372237
p20
aVtt0117571
p21
aVtt0337711
p22
aVtt0116095
p23
aVtt0119116
p24
aVtt0349903
p25
aVtt0370263
p26
aVtt0082677
p27
aVtt0099810
p28
aVtt0097937
p29
aVtt0486655
p30
aVtt0097458
p31
aVtt0096928
p32
aVtt0425123
p33
aVtt0113228
p34
aVtt0393162
p35
aVtt0366548
p36
aVtt0088851
p37
aVtt0368933
p38
aVtt0117008
p39
aVtt0151738
p40
aVtt0381061
p41
aVtt0368709
p42
aVtt0094293
p43
aVtt0080749
p44
aVtt0134084
p45
aVtt0095253
p46
aVtt0091763
p47
aVtt0090660
p48
aVtt0084234
p49
aVtt1229340
p50
aVtt0088161
p51
aVtt0098625
p52
aVtt0086859
p53
aVtt0082362
p54
aVtt0424942
p55
aVtt1586265
p56
aVtt0091814
p57
aVtt0083190
p58
aVtt0266697
p59
aVtt0317648
p60
aVtt0106500
p61
aVtt1033643
p62
aVtt0481536
p63
aVtt0183523
p64
aVtt0368008
p65
aVtt0107501
p66
aVtt0108358
p67
aVtt0091055
p68
aVtt0090738
p69
aVtt0120169
p70
aVtt0373051
p71
aVtt0094137
p72
aVtt0096969
p73
aVtt0092133
p74
aVtt0306841
p75
aVtt0811080
p76
aVtt0091080
p77
aVtt0269347
p78
aVtt0089686
p79
aVtt0327679
p80
aVtt0164052
p81
aVtt0350258
p82
aVtt0482603
p83
aVtt0088146
p84
aVtt0236493
p85
aVtt0286106
p86
aVtt0453467
p87
aVtt0102070
p88
aVtt0092690
p89
aVtt0247638
p90
aVtt0110099
p91
aVtt0345950
p92
aVtt0401623
p93
aVtt0112508
p94
aVtt0356618
p95
aVtt0329691
p96
aVtt0119086
p97
aVtt0091653
p98
aVtt0465580
p99
aVtt0110213
p100
aVtt0120179
p101
aVtt0099615
p102
aVtt0110613
p103
aVtt1041829
p104
aVtt0093010
p105
aVtt0035423
p106
aVtt0107076
p107
aVtt0103956
p108
aVtt0107616
p109
aVtt0358135
p110
aVtt0098554
p111
aVtt0092106
p112
aVtt0117218
p113
aVtt1142800
p114
aVtt0091064
p115
aVtt0145921
p116
aVtt1212436
p117
aVtt1327194
p118
aVtt0120032
p119
aVtt0102803
p120
aVtt0258463
p121
aVtt0107554
p122
aVtt0094812
p123
aVtt0080380
p124
aVtt0257568
p125
aVtt0097142
p126
aVtt0423294
p127
aVtt1201607
p128
aVtt0243736
p129
aVtt0110123
p130
aVtt1640484
p131
aVtt0824747
p132
aVtt0256380
p133
aVtt0100449
p134
aVtt0095243
p135
aVtt0101301
p136
aVtt0455407
p137
aVtt0092654
p138
aVtt0100143
p139
aVtt0976051
p140
aVtt0821640
p141
aVtt1068242
p142
aVtt0207201
p143
aVtt0082053
p144
aVtt0086154
p145
aVtt0089173
p146
aVtt0093507
p147
aVtt0104573
p148
aVtt0082927
p149
aVtt0097027
p150
aVtt0099785
p151
aVtt0118615
p152
aVtt0088414
p153
aVtt0097166
p154
aVtt0114168
p155
aVtt0093044
p156
aVtt0250310
p157
aVtt1657507
p158
aVtt0393735
p159
aVtt0848537
p160
aVtt0107144
p161
aVtt0427309
p162
aVtt0091877
p163
aVtt1430132
p164
aVtt0119488
p165
aVtt0963966
p166
aVtt0104409
p167
aVtt0796366
p168
aVtt0086510
p169
aVtt1014759
p170
aVtt0417148
p171
aVtt0209144
p172
aVtt0199725
p173
aVtt0117500
p174
aVtt0117091
p175
aVtt0257076
p176
aVtt0120770
p177
aVtt0120679
p178
aVtt0330793
p179
aVtt1204342
p180
aVtt0398286
p181
aVtt0489270
p182
aVtt0093036
p183
aVtt0443453
p184
aVtt0249478
p185
aVtt0090633
p186
aVtt0463985
p187
aVtt1636826
p188
aVtt0120832
p189
aVtt1259521
p190
aVtt0105585
p191
aVtt0095188
p192
aVtt0397313
p193
aVtt0142342
p194
aVtt1230414
p195
aVtt0240772
p196
aVtt1142988
p197
aVtt0120623
p198
aVtt0338751
p199
aVtt0118887
p200
aVtt1103153
p201
aVtt0107497
p202
aVtt0093177
p203
aVtt0098206
p204
aVtt0205000
p205
aVtt1282140
p206
aVtt0103859
p207
aVtt0092638
p208
aVtt0104040
p209
aVtt0424993
p210
aVtt0110093
p211
aVtt0111756
p212
aVtt0096754
p213
aVtt0264395
p214
aVtt0129387
p215
aVtt0106387
p216
aVtt1210819
p217
aVtt1403865
p218
aVtt0119668
p219
aVtt0080948
p220
aVtt0112818
p221
aVtt0104009
p222
aVtt0081031
p223
aVtt0293564
p224
aVtt0118548
p225
aVtt0289848
p226
aVtt0118771
p227
aVtt0453562
p228
aVtt0090206
p229
aVtt0372183
p230
aVtt0100135
p231
aVtt0085873
p232
aVtt0326900
p233
aVtt0107969
p234
aVtt1022603
p235
aVtt1915581
p236
aVtt0116531
p237
aVtt0086567
p238
aVtt0800320
p239
aVtt0844708
p240
aVtt0085549
p241
aVtt0095179
p242
aVtt0101523
p243
aVtt0795461
p244
aVtt0113729
p245
aVtt0183505
p246
aVtt0372588
p247
aVtt0119695
p248
aVtt0104952
p249
aVtt0990407
p250
aVtt1440728
p251
aVtt0130623
p252
aVtt0091209
p253
aVtt0092666
p254
aVtt0116669
p255
aVtt1345836
p256
aVtt0112579
p257
aVtt0192614
p258
aVtt0107943
p259
aVtt0120663
p260
aVtt0082009
p261
aVtt0385267
p262
aVtt0892782
p263
aVtt0164181
p264
aVtt0778661
p265
aVtt0087332
p266
aVtt1144884
p267
aVtt1723121
p268
aVtt0098442
p269
aVtt0118661
p270
aVtt0118880
p271
aVtt0098987
p272
aVtt0115645
p273
aVtt0086006
p274
aVtt0102517
p275
aVtt1748122
p276
aVtt0452608
p277
aVtt0108002
p278
aVtt0099316
p279
aVtt0098382
p280
aVtt0117057
p281
aVtt0427327
p282
aVtt0465494
p283
aVtt0082533
p284
aVtt0097579
p285
aVtt0119141
p286
aVtt0116213
p287
aVtt1142798
p288
aVtt0101761
p289
aVtt0084805
p290
aVtt0095956
p291
aVtt0125664
p292
aVtt0453556
p293
aVtt0163187
p294
aVtt0243585
p295
aVtt0085970
p296
aVtt0361467
p297
aVtt0118655
p298
aVtt0429589
p299
aVtt0320661
p300
aVtt0181875
p301
aVtt0112722
p302
aVtt0204313
p303
aVtt0494652
p304
aVtt0104691
p305
aVtt0361748
p306
aVtt0092214
p307
aVtt0101775
p308
aVtt0473075
p309
aVtt0089543
p310
aVtt0105323
p311
aVtt0100436
p312
aVtt0164114
p313
aVtt1323594
p314
aVtt0120382
p315
aVtt0113538
p316
aVtt0098067
p317
aVtt0083099
p318
aVtt0112697
p319
aVtt0097967
p320
aVtt0279778
p321
aVtt0163988
p322
aVtt0099423
p323
aVtt0295178
p324
aVtt1027718
p325
aVtt0367882
p326
aVtt0388500
p327
aVtt0479143
p328
aVtt0107507
p329
aVtt0133952
p330
aVtt1560985
p331
aVtt0109439
p332
aVtt0113189
p333
aVtt0117891
p334
aVtt0170016
p335
aVtt1007028
p336
aVtt1216475
p337
aVtt0119395
p338
aVtt0414387
p339
aVtt0099334
p340
aVtt0267626
p341
aVtt1440129
p342
aVtt0094964
p343
aVtt0313542
p344
aVtt0837562
p345
aVtt0088194
p346
aVtt0109287
p347
aVtt0082111
p348
aVtt0104647
p349
aVtt0119164
p350
aVtt0112499
p351
aVtt0317303
p352
aVtt0090142
p353
aVtt0105629
p354
aVtt1124035
p355
aVtt1023481
p356
aVtt1153706
p357
aVtt1397514
p358
aVtt0117110
p359
aVtt0257756
p360
aVtt0082945
p361
aVtt0096933
p362
aVtt0120324
p363
aVtt0119731
p364
aVtt0099739
p365
aVtt0111667
p366
aVtt0111693
p367
aVtt0158811
p368
aVtt0111742
p369
aVtt0099348
p370
aVtt0109444
p371
aVtt0109813
p372
aVtt0098273
p373
aVtt0250274
p374
aVtt0098524
p375
aVtt0109836
p376
aVtt0114709
p377
aVtt2053463
p378
aVtt0106598
p379
aVtt0106856
p380
aVtt0090756
p381
aVtt0120855
p382
aVtt0108171
p383
aVtt0089421
p384
aVtt0381971
p385
aVtt0283426
p386
aVtt0094701
p387
aVtt0290002
p388
aVtt0120863
p389
aVtt0454848
p390
aVtt0338094
p391
aVtt0098260
p392
aVtt0274558
p393
aVtt0267913
p394
aVtt0478087
p395
aVtt0275847
p396
aVtt1038686
p397
aVtt0231402
p398
aVtt0191133
p399
aVtt0099422
p400
aVtt0318974
p401
aVtt0095953
p402
aVtt0119951
p403
aVtt0125439
p404
aVtt0452594
p405
aVtt0947802
p406
aVtt0363771
p407
aVtt0167427
p408
aVtt0433386
p409
aVtt1438254
p410
aVtt0381707
p411
aVtt0107478
p412
aVtt0417741
p413
aVtt0329028
p414
aVtt0087835
p415
aVtt0312004
p416
aVtt0765010
p417
aVtt0110771
p418
aVtt0085656
p419
aVtt0120749
p420
aVtt0215129
p421
aVtt0112442
p422
aVtt0315297
p423
aVtt0099044
p424
aVtt0167261
p425
aVtt0092005
p426
aVtt0100502
p427
aVtt0104348
p428
aVtt0095647
p429
aVtt0314353
p430
aVtt0093137
p431
aVtt0089841
p432
aVtt0114436
p433
aVtt0091949
p434
aVtt0161083
p435
aVtt0095107
p436
aVtt0469494
p437
aVtt0273923
p438
aVtt0109021
p439
aVtt0220506
p440
aVtt0382077
p441
aVtt0107504
p442
aVtt0105128
p443
aVtt0105219
p444
aVtt0144214
p445
aVtt0085905
p446
aVtt0095409
p447
aVtt1285016
p448
aVtt0112573
p449
aVtt0119080
p450
aVtt1446192
p451
aVtt0116409
p452
aVtt0087469
p453
aVtt1130884
p454
aVtt0437863
p455
aVtt0101821
p456
aVtt0087263
p457
aVtt0101846
p458
aVtt0103596
p459
aVtt3063516
p460
aVtt0765429
p461
aVtt0397535
p462
aVtt0101540
p463
aVtt0120804
p464
aVtt0452694
p465
aVtt0350028
p466
aVtt0817538
p467
aVtt0103671
p468
aVtt0117979
p469
aVtt0109506
p470
aVtt0081635
p471
aVtt1391137
p472
aVtt1135503
p473
aVtt0094291
p474
aVtt0116483
p475
aVtt0107977
p476
aVtt0430308
p477
aVtt0101694
p478
aVtt2083383
p479
aVtt0088247
p480
aVtt0359950
p481
aVtt0095169
p482
aVtt0102744
p483
aVtt0113041
p484
aVtt0480242
p485
aVtt0485985
p486
aVtt0102926
p487
aVtt0318627
p488
aVtt1538403
p489
aVtt0367479
p490
aVtt0086034
p491
aVtt0091828
p492
aVtt0094721
p493
aVtt0107822
p494
aVtt0139414
p495
aVtt0116311
p496
aVtt0120611
p497
aVtt0087062
p498
aVtt0120657
p499
aVtt0104187
p500
aVtt0368447
p501
aVtt0097239
p502
aVtt0097428
p503
aVtt1277953
p504
aVtt0343818
p505
aVtt0238112
p506
aVtt1132626
p507
aVtt0331632
p508
aVtt0094799
p509
aVtt0099077
p510
aVtt0104670
p511
aVtt0422093
p512
aVtt0115857
p513
aVtt0280460
p514
aVtt0090830
p515
aVtt0110557
p516
aVtt0090735
p517
aVtt0264464
p518
aVtt0327084
p519
aVtt0962726
p520
aVtt1351685
p521
aVtt0093629
p522
aVtt0257106
p523
aVtt0089791
p524
aVtt1205489
p525
aVtt0200465
p526
aVtt0106292
p527
aVtt0116000
p528
aVtt1482459
p529
aVtt0088206
p530
aVtt0359013
p531
aVtt0119994
p532
aVtt0097050
p533
aVtt0094072
p534
aVtt0120891
p535
aVtt0102945
p536
aVtt0117333
p537
aVtt0100133
p538
aVtt0097108
p539
aVtt0185014
p540
aVtt0407887
p541
aVtt0329101
p542
aVtt0240890
p543
aVtt0119311
p544
aVtt1201167
p545
aVtt0095889
p546
aVtt0377471
p547
aVtt0277371
p548
aVtt0117731
p549
aVtt0099938
p550
aVtt0088000
p551
aVtt0116683
p552
aVtt0265459
p553
aVtt0113627
p554
aVtt0949731
p555
aVtt0316356
p556
aVtt1220198
p557
aVtt0087747
p558
aVtt0096438
p559
aVtt0128445
p560
aVtt0082001
p561
aVtt1261945
p562
aVtt0093660
p563
aVtt1265990
p564
aVtt0091790
p565
aVtt1570728
p566
aVtt0111438
p567
aVtt0128442
p568
aVtt0364045
p569
aVtt2083355
p570
aVtt0090966
p571
aVtt0110353
p572
aVtt1951264
p573
aVtt0825232
p574
aVtt1204975
p575
aVtt0119468
p576
aVtt0117108
p577
aVtt1279935
p578
aVtt0106453
p579
aVtt0163862
p580
aVtt0099762
p581
aVtt0449010
p582
aVtt0109190
p583
aVtt0137494
p584
aVtt0089222
p585
aVtt0120912
p586
aVtt0099253
p587
aVtt0109951
p588
aVtt0409847
p589
aVtt1605783
p590
aVtt0110684
p591
aVtt0112431
p592
aVtt0988595
p593
aVtt0795421
p594
aVtt0112642
p595
aVtt0486576
p596
aVtt0096487
p597
aVtt0285823
p598
aVtt0985694
p599
aVtt1706593
p600
aVtt1605630
p601
aVtt0085838
p602
aVtt0089880
p603
aVtt0111301
p604
aVtt0477347
p605
aVtt0098384
p606
aVtt0094074
p607
aVtt0093857
p608
aVtt1630036
p609
aVtt0316396
p610
aVtt0095031
p611
aVtt1401152
p612
aVtt0252501
p613
aVtt0309377
p614
aVtt1486185
p615
aVtt0083254
p616
aVtt0120347
p617
aVtt0499549
p618
aVtt0245562
p619
aVtt0116493
p620
aVtt0130121
p621
aVtt0096734
p622
aVtt0099697
p623
aVtt1139668
p624
aVtt1213663
p625
aVtt0085482
p626
aVtt0096073
p627
aVtt0091225
p628
aVtt0288477
p629
aVtt0421729
p630
aVtt0119303
p631
aVtt0107659
p632
aVtt0099088
p633
aVtt0114194
p634
aVtt1232200
p635
aVtt1623288
p636
aVtt0120609
p637
aVtt0120913
p638
aVtt1129442
p639
aVtt1392197
p640
aVtt0133093
p641
aVtt0472033
p642
aVtt0120596
p643
aVtt0212338
p644
aVtt0087337
p645
aVtt0110725
p646
aVtt0278435
p647
aVtt0298388
p648
aVtt0086425
p649
aVtt0337697
p650
aVtt0123987
p651
aVtt2431286
p652
aVtt0097965
p653
aVtt0088763
p654
aVtt0119008
p655
aVtt0167404
p656
aVtt0105699
p657
aVtt0405159
p658
aVtt0091149
p659
aVtt0363988
p660
aVtt0104692
p661
aVtt0091167
p662
aVtt1411250
p663
aVtt0092627
p664
aVtt1621039
p665
aVtt0325805
p666
aVtt0278504
p667
aVtt0118750
p668
aVtt0095654
p669
aVtt0096316
p670
aVtt0120662
p671
aVtt0101889
p672
aVtt0457400
p673
aVtt0260866
p674
aVtt0431308
p675
aVtt0116329
p676
aVtt0091159
p677
aVtt0208874
p678
aVtt0758766
p679
aVtt0120910
p680
aVtt0134119
p681
aVtt0091799
p682
aVtt0371246
p683
aVtt0092644
p684
aVtt0115963
p685
aVtt0203009
p686
aVtt0100486
p687
aVtt0472043
p688
aVtt0100301
p689
aVtt0477051
p690
aVtt1226273
p691
aVtt1694020
p692
aVtt2070862
p693
aVtt0080319
p694
aVtt0800080
p695
aVtt2215719
p696
aVtt0081433
p697
aVtt1306980
p698
aVtt0165929
p699
aVtt0096320
p700
aVtt0081400
p701
aVtt0110006
p702
aVtt1650062
p703
aVtt0493430
p704
aVtt0095497
p705
aVtt0146316
p706
aVtt0432021
p707
aVtt0133240
p708
aVtt0212346
p709
aVtt2109184
p710
aVtt0307453
p711
aVtt0095119
p712
aVtt0457430
p713
aVtt0087032
p714
aVtt0116282
p715
aVtt0117894
p716
aVtt0090863
p717
aVtt1885265
p718
aVtt0230030
p719
aVtt0386588
p720
aVtt0114887
p721
aVtt0325258
p722
aVtt1399103
p723
aVtt0091474
p724
aVtt0383574
p725
aVtt0187819
p726
aVtt0086346
p727
aVtt0120667
p728
aVtt0204175
p729
aVtt1402488
p730
aVtt0094142
p731
aVtt0449088
p732
aVtt1336608
p733
aVtt0093894
p734
aVtt0110516
p735
aVtt0181316
p736
aVtt1013753
p737
aVtt0092948
p738
aVtt0098097
p739
aVtt0131325
p740
aVtt0086383
p741
aVtt0237572
p742
aVtt0395169
p743
aVtt0105327
p744
aVtt1220634
p745
aVtt0265087
p746
aVtt0109297
p747
aVtt0104389
p748
aVtt0257360
p749
aVtt0227538
p750
aVtt0090887
p751
aVtt0382932
p752
aVtt0280590
p753
aVtt0103855
p754
aVtt0094082
p755
aVtt0101492
p756
aVtt1185416
p757
aVtt0479500
p758
aVtt0231775
p759
aVtt0117060
p760
aVtt0463854
p761
aVtt0087482
p762
aVtt0097647
p763
aVtt0101745
p764
aVtt1320261
p765
aVtt0098627
p766
aVtt0172495
p767
aVtt0448011
p768
aVtt0119432
p769
aVtt0217505
p770
aVtt0099005
p771
aVtt0263488
p772
aVtt1020876
p773
aVtt2024544
p774
aVtt0108560
p775
aVtt1855199
p776
aVtt0115685
p777
aVtt0251127
p778
aVtt0120877
p779
aVtt0102984
p780
aVtt0179626
p781
aVtt0489099
p782
aVtt0770752
p783
aVtt0086197
p784
aVtt0083658
p785
aVtt0111732
p786
aVtt0098188
p787
aVtt0120738
p788
aVtt1155056
p789
aVtt0104940
p790
aVtt0122933
p791
aVtt0338466
p792
aVtt0357413
p793
aVtt0399146
p794
aVtt0376541
p795
aVtt1047540
p796
aVtt0104006
p797
aVtt0108473
p798
aVtt0477080
p799
aVtt0097366
p800
aVtt0479884
p801
aVtt0101453
p802
aVtt1196141
p803
aVtt1598828
p804
aVtt0762114
p805
aVtt0120873
p806
aVtt0413300
p807
aVtt1817273
p808
aVtt0119137
p809
aVtt0300532
p810
aVtt0114388
p811
aVtt0892318
p812
aVtt0146838
p813
aVtt0090223
p814
aVtt0099073
p815
aVtt0303714
p816
aVtt0119896
p817
aVtt0087277
p818
aVtt0121766
p819
aVtt1985966
p820
aVtt0101516
p821
aVtt0790628
p822
aVtt0256415
p823
aVtt0087629
p824
aVtt0102719
p825
aVtt0094226
p826
aVtt0116320
p827
aVtt1250777
p828
aVtt0839980
p829
aVtt0219965
p830
aVtt0472198
p831
aVtt0103007
p832
aVtt0089155
p833
aVtt0087781
p834
aVtt0120737
p835
aVtt1632708
p836
aVtt0349710
p837
aVtt1981677
p838
aVtt0085852
p839
aVtt0097328
p840
aVtt0918927
p841
aVtt0093870
p842
aVtt0418763
p843
aVtt0175880
p844
aVtt0094746
p845
aVtt0084516
p846
aVtt1302011
p847
aVtt0102460
p848
aVtt0084749
p849
aVtt1375670
p850
aVtt0119396
p851
aVtt0118617
p852
aVtt0453451
p853
aVtt0172493
p854
aVtt0100212
p855
aVtt1170358
p856
aVtt1155076
p857
aVtt0088330
p858
aVtt0117381
p859
aVtt0097523
p860
aVtt0346156
p861
aVtt0109831
p862
aVtt0146336
p863
aVtt0105428
p864
aVtt1133985
p865
aVtt0443274
p866
aVtt0083866
p867
aVtt0095990
p868
aVtt0119675
p869
aVtt0098471
p870
aVtt0102685
p871
aVtt0096446
p872
aVtt0088931
p873
aVtt0298130
p874
aVtt0208003
p875
aVtt0956038
p876
aVtt1018785
p877
aVtt1127884
p878
aVtt0302886
p879
aVtt1226229
p880
aVtt0263757
p881
aVtt1067106
p882
aVtt0093476
p883
aVtt1135487
p884
aVtt0119360
p885
aVtt0110216
p886
aVtt1535438
p887
aVtt1951261
p888
aVtt1298649
p889
aVtt0454876
p890
aVtt0120632
p891
aVtt0094884
p892
aVtt0107131
p893
aVtt0116259
p894
aVtt0200550
p895
aVtt0113481
p896
aVtt0110598
p897
aVtt0103247
p898
aVtt0190138
p899
aVtt0162650
p900
aVtt0098309
p901
aVtt0099204
p902
aVtt1583421
p903
aVtt0104466
p904
aVtt0775539
p905
aVtt0404032
p906
aVtt1564367
p907
aVtt0098519
p908
aVtt0111255
p909
aVtt0104868
p910
aVtt0093105
p911
aVtt0390022
p912
aVtt0120630
p913
aVtt0090319
p914
aVtt0085380
p915
aVtt0168501
p916
aVtt0432348
p917
aVtt1731141
p918
aVtt1193631
p919
aVtt0480249
p920
aVtt2294629
p921
aVtt0120890
p922
aVtt1276104
p923
aVtt0100419
p924
aVtt0131704
p925
aVtt0980970
p926
aVtt0118715
p927
aVtt0100944
p928
aVtt1111422
p929
aVtt0118055
p930
aVtt0212720
p931
aVtt0097733
p932
aVtt1622547
p933
aVtt0093777
p934
aVtt1392170
p935
aVtt0175142
p936
aVtt0110632
p937
aVtt0420238
p938
aVtt0137523
p939
aVtt0120791
p940
aVtt0098966
p941
aVtt0083064
p942
aVtt0091777
p943
aVtt2609912
p944
aVtt0097368
p945
aVtt0103016
p946
aVtt0092965
p947
aVtt0120703
p948
aVtt0383010
p949
aVtt0146675
p950
aVtt0118798
p951
aVtt1661382
p952
aVtt0213203
p953
aVtt0120601
p954
aVtt0093780
p955
aVtt0114011
p956
aVtt1092026
p957
aVtt0099892
p958
aVtt0482606
p959
aVtt0138749
p960
aVtt0104291
p961
aVtt0115956
p962
aVtt1193138
p963
aVtt0116756
p964
aVtt0097737
p965
aVtt0081562
p966
aVtt0097770
p967
aVtt0102655
p968
aVtt1911644
p969
aVtt0095294
p970
aVtt0099685
p971
aVtt0093407
p972
aVtt0115641
p973
aVtt0095705
p974
aVtt1231583
p975
aVtt0104928
p976
aVtt0091059
p977
aVtt0316654
p978
aVtt1433813
p979
aVtt1457767
p980
aVtt0094889
p981
aVtt1922777
p982
aVtt0108442
p983
aVtt0118884
p984
aVtt0114069
p985
aVtt0120783
p986
aVtt0216216
p987
aVtt0488120
p988
aVtt0282120
p989
aVtt0113071
p990
aVtt0109035
p991
aVtt0095882
p992
aVtt0427152
p993
aVtt0139699
p994
aVtt0116514
p995
aVtt0082926
p996
aVtt1764651
p997
aVtt0814314
p998
aVtt0204946
p999
aVtt0082340
p1000
aVtt0364725
p1001
aVtt0138524
p1002
aVtt0107614
p1003
aVtt1411704
p1004
aVtt0086998
p1005
aVtt0109127
p1006
aVtt0435761
p1007
aVtt0443489
p1008
aVtt0290334
p1009
aVtt0092699
p1010
aVtt0092099
p1011
aVtt0117913
p1012
aVtt0081259
p1013
aVtt1231587
p1014
aVtt1821694
p1015
aVtt0221027
p1016
aVtt0287717
p1017
aVtt0112462
p1018
aVtt1114677
p1019
aVtt0195945
p1020
aVtt0113097
p1021
aVtt0163651
p1022
aVtt0089118
p1023
aVtt0114048
p1024
aVtt0105477
p1025
aVtt0384806
p1026
aVtt0085995
p1027
aVtt0116695
p1028
aVtt0090713
p1029
aVtt0095800
p1030
aVtt0901476
p1031
aVtt0097722
p1032
aVtt0085919
p1033
aVtt1907668
p1034
aVtt0116287
p1035
aVtt0467406
p1036
aVtt0110146
p1037
aVtt0094731
p1038
aVtt0378194
p1039
aVtt0363547
p1040
aVtt0082801
p1041
aVtt0101605
p1042
aVtt1318514
p1043
aVtt0203019
p1044
aVtt0196229
p1045
aVtt1001526
p1046
aVtt0083943
p1047
aVtt0103939
p1048
aVtt0433383
p1049
aVtt0113303
p1050
aVtt0368891
p1051
aVtt0450259
p1052
aVtt0089886
p1053
aVtt0112571
p1054
aVtt1245492
p1055
aVtt0220099
p1056
aVtt0107254
p1057
aVtt0111280
p1058
aVtt0096101
p1059
aVtt0298814
p1060
aVtt0305711
p1061
aVtt0102598
p1062
aVtt0087928
p1063
aVtt0938283
p1064
aVtt0317740
p1065
aVtt1119646
p1066
aVtt1366344
p1067
aVtt0092035
p1068
aVtt0948470
p1069
aVtt0463998
p1070
aVtt0259446
p1071
aVtt1212419
p1072
aVtt0109891
p1073
aVtt0937375
p1074
aVtt0089530
p1075
aVtt0340163
p1076
aVtt0082198
p1077
aVtt0113855
p1078
aVtt0120800
p1079
aVtt0107211
p1080
aVtt0430922
p1081
aVtt1691917
p1082
aVtt0327137
p1083
aVtt2473682
p1084
aVtt0457433
p1085
aVtt0386140
p1086
aVtt2334873
p1087
aVtt0089755
p1088
aVtt1233227
p1089
aVtt0351977
p1090
aVtt0093300
p1091
aVtt0311429
p1092
aVtt0185371
p1093
aVtt0090217
p1094
aVtt0096244
p1095
aVtt0091306
p1096
aVtt0084732
p1097
aVtt0081178
p1098
aVtt0119528
p1099
aVtt0105121
p1100
aVtt0348150
p1101
aVtt0340855
p1102
aVtt0089767
p1103
aVtt0305396
p1104
aVtt0963178
p1105
aVtt0104714
p1106
aVtt0332280
p1107
aVtt0337921
p1108
aVtt0780504
p1109
aVtt0104114
p1110
aVtt0960144
p1111
aVtt0209163
p1112
aVtt0095927
p1113
aVtt0266915
p1114
aVtt0107034
p1115
aVtt0187393
p1116
aVtt0116209
p1117
aVtt0099654
p1118
aVtt0104897
p1119
aVtt0086355
p1120
aVtt0107808
p1121
aVtt1135084
p1122
aVtt0192731
p1123
aVtt0413895
p1124
aVtt0083798
p1125
aVtt0386032
p1126
aVtt1670345
p1127
aVtt0109456
p1128
aVtt0108162
p1129
aVtt0236388
p1130
aVtt0116225
p1131
aVtt0113419
p1132
aVtt0328828
p1133
aVtt0082495
p1134
aVtt0100935
p1135
aVtt0114857
p1136
aVtt0790686
p1137
aVtt0106375
p1138
aVtt1478338
p1139
aVtt0110064
p1140
aVtt0482571
p1141
aVtt0093185
p1142
aVtt0129290
p1143
aVtt0110322
p1144
aVtt0107290
p1145
aVtt0462538
p1146
aVtt0292506
p1147
aVtt0441773
p1148
aVtt0107050
p1149
aVtt0198021
p1150
aVtt0143145
p1151
aVtt2302755
p1152
aVtt0115644
p1153
aVtt0088847
p1154
aVtt2247692
p1155
aVtt0425430
p1156
aVtt0356910
p1157
aVtt0117765
p1158
aVtt0105698
p1159
aVtt0118665
p1160
aVtt0783233
p1161
aVtt0110391
p1162
aVtt0081529
p1163
aVtt0184858
p1164
aVtt1093908
p1165
aVtt0087538
p1166
aVtt0409459
p1167
aVtt0385726
p1168
aVtt0101272
p1169
aVtt0129167
p1170
aVtt0281358
p1171
aVtt0087078
p1172
aVtt0120762
p1173
aVtt0117509
p1174
aVtt0086993
p1175
aVtt0800039
p1176
aVtt0111143
p1177
aVtt1126591
p1178
aVtt0101669
p1179
aVtt0245686
p1180
aVtt0313911
p1181
aVtt0120915
p1182
aVtt1194173
p1183
aVtt0147800
p1184
aVtt0096203
p1185
aVtt0113442
p1186
aVtt0090264
p1187
aVtt0107004
p1188
aVtt0396555
p1189
aVtt1179904
p1190
aVtt0086216
p1191
aVtt0970179
p1192
aVtt0085333
p1193
aVtt0396592
p1194
aVtt0084354
p1195
aVtt0080913
p1196
aVtt0374900
p1197
aVtt0103893
p1198
aVtt0190590
p1199
aVtt0099487
p1200
aVtt0107207
p1201
aVtt1043726
p1202
aVtt0280486
p1203
aVtt0155267
p1204
aVtt1464540
p1205
aVtt0116583
p1206
aVtt0311289
p1207
aVtt0770828
p1208
aVtt0161081
p1209
aVtt0120603
p1210
aVtt0100514
p1211
aVtt0082398
p1212
aVtt0335266
p1213
aVtt0160127
p1214
aVtt0088846
p1215
aVtt0090357
p1216
aVtt0116629
p1217
aVtt0107206
p1218
aVtt0376105
p1219
aVtt2024432
p1220
aVtt0119217
p1221
aVtt2017020
p1222
aVtt0113198
p1223
aVtt0113501
p1224
aVtt2184339
p1225
aVtt0408345
p1226
aVtt0082894
p1227
aVtt0082269
p1228
aVtt0141098
p1229
aVtt0185937
p1230
aVtt0090927
p1231
aVtt0942385
p1232
aVtt0089730
p1233
aVtt0093886
p1234
aVtt2023453
p1235
aVtt2191701
p1236
aVtt0105265
p1237
aVtt0116191
p1238
aVtt0882977
p1239
aVtt0790604
p1240
aVtt0101921
p1241
aVtt0086393
p1242
aVtt0084787
p1243
aVtt0097987
p1244
aVtt0299172
p1245
aVtt0150377
p1246
aVtt0101587
p1247
aVtt0369441
p1248
aVtt0144814
p1249
aVtt0410297
p1250
aVtt0324216
p1251
aVtt0100224
p1252
aVtt0161100
p1253
aVtt0107282
p1254
aVtt0442933
p1255
aVtt0097981
p1256
aVtt0335245
p1257
aVtt0119718
p1258
aVtt0117705
p1259
aVtt0241760
p1260
aVtt0102034
p1261
aVtt0105706
p1262
aVtt0091188
p1263
aVtt0082846
p1264
aVtt0104431
p1265
aVtt0118073
p1266
aVtt0159365
p1267
aVtt0141109
p1268
aVtt1385867
p1269
aVtt0089126
p1270
aVtt0348836
p1271
aVtt0091554
p1272
aVtt0094963
p1273
aVtt0328589
p1274
aVtt0107818
p1275
aVtt0884328
p1276
aVtt0103060
p1277
aVtt0266543
p1278
aVtt0084899
p1279
aVtt0094744
p1280
aVtt0388482
p1281
aVtt0110366
p1282
aVtt0162677
p1283
aVtt0146309
p1284
aVtt0111686
p1285
aVtt0144528
p1286
aVtt0095599
p1287
aVtt0098343
p1288
aVtt1535109
p1289
aVtt0421239
p1290
aVtt1091191
p1291
aVtt0110478
p1292
aVtt1321870
p1293
aVtt1588173
p1294
aVtt0997047
p1295
aVtt1499658
p1296
aVtt0785006
p1297
aVtt0242998
p1298
aVtt0114681
p1299
aVtt0405469
p1300
aVtt0119905
p1301
aVtt0119848
p1302
aVtt0277434
p1303
aVtt0090685
p1304
aVtt0089941
p1305
aVtt2404463
p1306
aVtt1268799
p1307
aVtt0258000
p1308
aVtt0104437
p1309
aVtt0115683
p1310
aVtt0101329
p1311
aVtt0085398
p1312
aVtt0094321
p1313
aVtt0133152
p1314
aVtt1298650
p1315
aVtt0126029
p1316
aVtt0094608
p1317
aVtt0100168
p1318
aVtt0433400
p1319
aVtt0105112
p1320
aVtt0834001
p1321
aVtt2378281
p1322
aVtt0122151
p1323
aVtt0088258
p1324
aVtt0108539
p1325
aVtt0091024
p1326
aVtt0080474
p1327
aVtt0318649
p1328
aVtt0084855
p1329
aVtt2515086
p1330
aVtt0120053
p1331
aVtt0118571
p1332
aVtt0116830
p1333
aVtt1335975
p1334
aVtt0397101
p1335
aVtt0120841
p1336
aVtt0120595
p1337
aVtt0091396
p1338
aVtt1263670
p1339
aVtt0090583
p1340
aVtt0127723
p1341
aVtt0385880
p1342
aVtt0101917
p1343
aVtt0093437
p1344
aVtt0105435
p1345
aVtt0478311
p1346
aVtt0120577
p1347
aVtt0109120
p1348
aVtt0090886
p1349
aVtt0408524
p1350
aVtt0090768
p1351
aVtt0110971
p1352
aVtt0100994
p1353
aVtt1013752
p1354
aVtt0986263
p1355
aVtt0160797
p1356
aVtt0758746
p1357
aVtt0452598
p1358
aVtt0458525
p1359
aVtt0947810
p1360
aVtt1650554
p1361
aVtt0097138
p1362
aVtt0389722
p1363
aVtt0109254
p1364
aVtt0110364
p1365
aVtt0116705
p1366
aVtt0242653
p1367
aVtt0380510
p1368
aVtt0108308
p1369
aVtt0496806
p1370
aVtt0190865
p1371
aVtt0120576
p1372
aVtt0099128
p1373
aVtt0120587
p1374
aVtt1772341
p1375
aVtt1075417
p1376
aVtt0219854
p1377
aVtt0110475
p1378
aVtt1055369
p1379
aVtt0092710
p1380
aVtt0099850
p1381
aVtt0284490
p1382
aVtt0848228
p1383
aVtt0106223
p1384
aVtt0123964
p1385
aVtt0167190
p1386
aVtt0085276
p1387
aVtt1068680
p1388
aVtt1325004
p1389
aVtt0890870
p1390
aVtt0114682
p1391
aVtt0259324
p1392
aVtt0102975
p1393
aVtt0081353
p1394
aVtt0325703
p1395
aVtt1778304
p1396
aVtt1148204
p1397
aVtt1392214
p1398
aVtt0191754
p1399
aVtt0356470
p1400
aVtt0976238
p1401
aVtt0120082
p1402
aVtt0099575
p1403
aVtt0093773
p1404
aVtt0097499
p1405
aVtt0090203
p1406
aVtt0112864
p1407
aVtt0146984
p1408
aVtt0313443
p1409
aVtt0093278
p1410
aVtt0092718
p1411
aVtt0337563
p1412
aVtt0094025
p1413
aVtt1663662
p1414
aVtt0094715
p1415
aVtt0181689
p1416
aVtt1385826
p1417
aVtt0110428
p1418
aVtt0108147
p1419
aVtt0945513
p1420
aVtt0261392
p1421
aVtt0163983
p1422
aVtt0095638
p1423
aVtt0093756
p1424
aVtt0091178
p1425
aVtt0832266
p1426
aVtt0103639
p1427
aVtt0242423
p1428
aVtt1568346
p1429
aVtt0187078
p1430
aVtt0830515
p1431
aVtt0398808
p1432
aVtt0186975
p1433
aVtt0313737
p1434
aVtt0398165
p1435
aVtt0419706
p1436
aVtt0305669
p1437
aVtt0105151
p1438
aVtt0181852
p1439
aVtt0483726
p1440
aVtt0267804
p1441
aVtt0103776
p1442
aVtt0118301
p1443
aVtt0103874
p1444
aVtt0100477
p1445
aVtt0097322
p1446
aVtt0316465
p1447
aVtt0113500
p1448
aVtt0160916
p1449
aVtt0101764
p1450
aVtt0092226
p1451
aVtt0110737
p1452
aVtt0155975
p1453
aVtt0109504
p1454
aVtt0128278
p1455
aVtt0822832
p1456
aVtt0892791
p1457
aVtt0116130
p1458
aVtt0091295
p1459
aVtt0317705
p1460
aVtt0114924
p1461
aVtt0360717
p1462
aVtt0102220
p1463
aVtt0088213
p1464
aVtt0416212
p1465
aVtt0120746
p1466
aVtt0100201
p1467
aVtt0116778
p1468
aVtt0092105
p1469
aVtt0111503
p1470
aVtt0117951
p1471
aVtt0088011
p1472
aVtt0094012
p1473
aVtt0119715
p1474
aVtt0102216
p1475
aVtt0116552
p1476
aVtt0118689
p1477
aVtt0398375
p1478
aVtt0115907
p1479
aVtt0094631
p1480
aVtt0906108
p1481
aVtt0083281
p1482
aVtt0089393
p1483
aVtt0110678
p1484
aVtt1428538
p1485
aVtt0082263
p1486
aVtt0086429
p1487
aVtt0182789
p1488
aVtt0118570
p1489
aVtt1186367
p1490
aVtt0105217
p1491
aVtt0419984
p1492
aVtt0103924
p1493
aVtt1077368
p1494
aVtt0172156
p1495
aVtt0110638
p1496
aVtt0252076
p1497
aVtt0087951
p1498
aVtt0104454
p1499
aVtt0357507
p1500
aVtt0080661
p1501
aVtt0276751
p1502
aVtt0458352
p1503
aVtt0105481
p1504
aVtt0427229
p1505
aVtt0091875
p1506
aVtt2140373
p1507
aVtt1024648
p1508
aVtt0384642
p1509
aVtt0120689
p1510
aVtt0092513
p1511
aVtt0094118
p1512
aVtt0431197
p1513
aVtt0322589
p1514
aVtt0177971
p1515
aVtt0388795
p1516
aVtt0080492
p1517
aVtt1192628
p1518
aVtt0118749
p1519
aVtt0762125
p1520
aVtt0112401
p1521
aVtt1622979
p1522
aVtt0091187
p1523
aVtt0102729
p1524
aVtt0338459
p1525
aVtt0083131
p1526
aVtt0333766
p1527
aVtt0327162
p1528
aVtt0111257
p1529
aVtt0446029
p1530
aVtt0844471
p1531
aVtt0084088
p1532
aVtt1411238
p1533
aVtt0229260
p1534
aVtt0084726
p1535
aVtt0116151
p1536
aVtt0097481
p1537
aVtt1152836
p1538
aVtt0097235
p1539
aVtt0105690
p1540
aVtt0108148
p1541
aVtt0332452
p1542
aVtt0095963
p1543
aVtt0145531
p1544
aVtt0100114
p1545
aVtt0088256
p1546
aVtt0371724
p1547
aVtt0337978
p1548
aVtt0114885
p1549
aVtt1212450
p1550
aVtt0358273
p1551
aVtt1270798
p1552
aVtt0102492
p1553
aVtt0250687
p1554
aVtt1408101
p1555
aVtt0365957
p1556
aVtt0852713
p1557
aVtt0108185
p1558
aVtt0279889
p1559
aVtt0098115
p1560
aVtt1126618
p1561
aVtt0117331
p1562
aVtt0985699
p1563
aVtt0127536
p1564
aVtt1114740
p1565
aVtt1375666
p1566
aVtt0481369
p1567
aVtt0111282
p1568
aVtt0099703
p1569
aVtt0089927
p1570
aVtt0829482
p1571
aVtt0416236
p1572
aVtt0317919
p1573
aVtt0476964
p1574
aVtt0234215
p1575
aVtt0306047
p1576
aVtt0102065
p1577
aVtt0082694
p1578
aVtt0383216
p1579
aVtt0094898
p1580
aVtt0373889
p1581
aVtt0118632
p1582
aVtt1582507
p1583
aVtt0281373
p1584
aVtt0090917
p1585
aVtt0125022
p1586
aVtt0408985
p1587
aVtt0114287
p1588
aVtt1598822
p1589
aVtt0091738
p1590
aVtt0118971
p1591
aVtt0157472
p1592
aVtt0091369
p1593
aVtt1591479
p1594
aVtt1853728
p1595
aVtt0084865
p1596
aVtt0082158
p1597
aVtt0257044
p1598
aVtt0102059
p1599
aVtt0100507
p1600
aVtt1815862
p1601
aVtt0448694
p1602
aVtt0428803
p1603
aVtt0169547
p1604
aVtt0093966
p1605
aVtt0120338
p1606
aVtt0119567
p1607
aVtt0093690
p1608
aVtt0120776
p1609
aVtt0120185
p1610
aVtt0109484
p1611
aVtt0355295
p1612
aVtt1195478
p1613
aVtt0420294
p1614
aVtt2229499
p1615
aVtt0119654
p1616
aVtt0120142
p1617
aVtt0099871
p1618
aVtt0101452
p1619
aVtt0092076
p1620
aVtt0119594
p1621
aVtt0093737
p1622
aVtt0100442
p1623
aVtt0107840
p1624
aVtt0112819
p1625
aVtt0084268
p1626
aVtt0436697
p1627
aVtt0107091
p1628
aVtt0379725
p1629
aVtt0144120
p1630
aVtt0438097
p1631
aVtt0409182
p1632
aVtt0162222
p1633
aVtt0171433
p1634
aVtt0093822
p1635
aVtt0106770
p1636
aVtt0121765
p1637
aVtt0120828
p1638
aVtt0322802
p1639
aVtt0817230
p1640
aVtt0106246
p1641
aVtt0289765
p1642
aVtt0097815
p1643
aVtt1430626
p1644
aVtt0106466
p1645
aVtt1033575
p1646
aVtt0086379
p1647
aVtt0089853
p1648
aVtt0094862
p1649
aVtt1547234
p1650
aVtt1488555
p1651
aVtt0081283
p1652
aVtt0418279
p1653
aVtt0104427
p1654
aVtt0297037
p1655
aVtt0122459
p1656
aVtt0113347
p1657
aVtt1245526
p1658
aVtt0163639
p1659
aVtt0091310
p1660
aVtt0110877
p1661
aVtt0108160
p1662
aVtt0103184
p1663
aVtt0100828
p1664
aVtt1611224
p1665
aVtt1855325
p1666
aVtt0087980
p1667
aVtt0092857
p1668
aVtt0089560
p1669
aVtt0140352
p1670
aVtt0086619
p1671
aVtt0083694
p1672
aVtt0117318
p1673
aVtt0102900
p1674
aVtt0472062
p1675
aVtt0082406
p1676
aVtt0091129
p1677
aVtt0358082
p1678
aVtt0120484
p1679
aVtt0993846
p1680
aVtt0391198
p1681
aVtt0082770
p1682
aVtt1371111
p1683
aVtt0082783
p1684
aVtt0085863
p1685
aVtt0105811
p1686
aVtt0119942
p1687
aVtt0443272
p1688
aVtt0163978
p1689
aVtt0110997
p1690
aVtt0158622
p1691
aVtt0268397
p1692
aVtt0090888
p1693
aVtt0903624
p1694
aVtt0089218
p1695
aVtt0084827
p1696
aVtt0087050
p1697
aVtt0384537
p1698
aVtt0106582
p1699
aVtt0087003
p1700
aVtt0184907
p1701
aVtt0758752
p1702
aVtt0238546
p1703
aVtt0087233
p1704
aVtt1596350
p1705
aVtt0116277
p1706
aVtt0101787
p1707
aVtt0295427
p1708
aVtt0106918
p1709
aVtt0092796
p1710
aVtt0213149
p1711
aVtt0081974
p1712
aVtt0102004
p1713
aVtt0093409
p1714
aVtt0309698
p1715
aVtt0408306
p1716
aVtt0094678
p1717
aVtt0091042
p1718
aVtt0134273
p1719
aVtt0947798
p1720
aVtt0095519
p1721
aVtt0758730
p1722
aVtt0109198
p1723
aVtt1229238
p1724
aVtt0120094
p1725
aVtt0102789
p1726
aVtt0097044
p1727
aVtt0083260
p1728
aVtt1517489
p1729
aVtt0298203
p1730
aVtt0401855
p1731
aVtt0130018
p1732
aVtt0084920
p1733
aVtt0140379
p1734
aVtt0104073
p1735
aVtt0467110
p1736
aVtt0095897
p1737
aVtt0100404
p1738
aVtt0087921
p1739
aVtt0092608
p1740
aVtt0119173
p1741
aVtt1045658
p1742
aVtt0162661
p1743
aVtt0115639
p1744
aVtt1082868
p1745
aVtt1598778
p1746
aVtt1981115
p1747
aVtt0242445
p1748
aVtt0227445
p1749
aVtt0417001
p1750
aVtt0388419
p1751
aVtt0304415
p1752
aVtt0102411
p1753
aVtt0225071
p1754
aVtt0088885
p1755
aVtt1300854
p1756
aVtt0097211
p1757
aVtt1876451
p1758
aVtt0117918
p1759
aVtt0113492
p1760
aVtt0104850
p1761
aVtt0085615
p1762
aVtt0114814
p1763
aVtt0462590
p1764
aVtt0082402
p1765
aVtt0111070
p1766
aVtt0102631
p1767
aVtt1854564
p1768
aVtt0141926
p1769
aVtt0112688
p1770
aVtt0085255
p1771
aVtt0312528
p1772
aVtt0117723
p1773
aVtt0164334
p1774
aVtt1321509
p1775
aVtt0490084
p1776
aVtt0120661
p1777
aVtt0134067
p1778
aVtt0109303
p1779
aVtt0265086
p1780
aVtt0104070
p1781
aVtt0093415
p1782
aVtt0252503
p1783
aVtt0866439
p1784
aVtt1198138
p1785
aVtt0080934
p1786
aVtt0395699
p1787
aVtt0087091
p1788
aVtt0116421
p1789
aVtt0093493
p1790
aVtt0365737
p1791
aVtt0302640
p1792
aVtt0096061
p1793
aVtt0080455
p1794
aVtt0117666
p1795
aVtt1055292
p1796
aVtt0088850
p1797
aVtt0124298
p1798
aVtt0086405
p1799
aVtt0120631
p1800
aVtt1078940
p1801
aVtt0107798
p1802
aVtt2234155
p1803
aVtt0118883
p1804
aVtt0367594
p1805
aVtt1185834
p1806
aVtt0105483
p1807
aVtt0094947
p1808
aVtt0183790
p1809
aVtt0250797
p1810
aVtt0120363
p1811
aVtt0098282
p1812
aVtt0443543
p1813
aVtt0294870
p1814
aVtt0122541
p1815
aVtt0790724
p1816
aVtt0092925
p1817
aVtt0122718
p1818
aVtt0113987
p1819
aVtt0142688
p1820
aVtt0471042
p1821
aVtt0083542
p1822
aVtt1217613
p1823
aVtt1568911
p1824
aVtt1536044
p1825
aVtt0089881
p1826
aVtt0095776
p1827
aVtt1038919
p1828
aVtt0465234
p1829
aVtt0132512
p1830
aVtt0109520
p1831
aVtt0085208
p1832
aVtt0477348
p1833
aVtt0116253
p1834
aVtt1059786
p1835
aVtt0096943
p1836
aVtt0118556
p1837
aVtt0414982
p1838
aVtt2404311
p1839
aVtt0119345
p1840
aVtt0114608
p1841
aVtt0091557
p1842
aVtt0096463
p1843
aVtt0145681
p1844
aVtt0087589
p1845
aVtt0097474
p1846
aVtt0228750
p1847
aVtt1262416
p1848
aVtt0095016
p1849
aVtt0250494
p1850
aVtt0120188
p1851
aVtt0105793
p1852
aVtt0087800
p1853
aVtt0106226
p1854
aVtt0119874
p1855
aVtt0337579
p1856
aVtt0223897
p1857
aVtt0103241
p1858
aVtt0114508
p1859
aVtt0131369
p1860
aVtt0181865
p1861
aVtt0080360
p1862
aVtt0120461
p1863
aVtt0322330
p1864
aVtt1446714
p1865
aVtt0097626
p1866
aVtt0080684
p1867
aVtt0114746
p1868
aVtt0367959
p1869
aVtt0099819
p1870
aVtt2243537
p1871
aVtt1616195
p1872
aVtt0085894
p1873
aVtt0206275
p1874
aVtt0450232
p1875
aVtt0101507
p1876
aVtt0117372
p1877
aVtt0118607
p1878
aVtt0102609
p1879
aVtt0086058
p1880
aVtt0114781
p1881
aVtt1800741
p1882
aVtt0389860
p1883
aVtt0167260
p1884
aVtt0100029
p1885
aVtt0399201
p1886
aVtt0102266
p1887
aVtt0095271
p1888
aVtt1504320
p1889
aVtt0195685
p1890
aVtt0115798
p1891
aVtt2226417
p1892
aVtt0100403
p1893
aVtt1253864
p1894
aVtt0765446
p1895
aVtt0811138
p1896
aVtt0952640
p1897
aVtt0086356
p1898
aVtt0100140
p1899
aVtt0093148
p1900
aVtt0118708
p1901
aVtt0088170
p1902
aVtt0840361
p1903
aVtt0099800
p1904
aVtt1228705
p1905
aVtt1116184
p1906
aVtt0101902
p1907
aVtt0099700
p1908
aVtt1655442
p1909
aVtt0106400
p1910
aVtt0107212
p1911
aVtt0285531
p1912
aVtt1073498
p1913
aVtt0110367
p1914
aVtt0245844
p1915
aVtt0387564
p1916
aVtt0116040
p1917
aVtt0102316
p1918
aVtt0268978
p1919
aVtt0295297
p1920
aVtt0102593
p1921
aVtt0093936
p1922
aVtt0411477
p1923
aVtt1800241
p1924
aVtt0364751
p1925
aVtt0120755
p1926
aVtt0086960
p1927
aVtt0108399
p1928
aVtt0100157
p1929
aVtt1001508
p1930
aVtt0099141
p1931
aVtt0408790
p1932
aVtt0455499
p1933
aVtt0084675
p1934
aVtt0299658
p1935
aVtt0082199
p1936
aVtt0499448
p1937
aVtt0125454
p1938
aVtt1142977
p1939
aVtt0165982
p1940
aVtt0328880
p1941
aVtt0308644
p1942
aVtt0104452
p1943
aVtt0102798
p1944
aVtt0382992
p1945
aVtt0461770
p1946
aVtt0113957
p1947
aVtt1790886
p1948
aVtt0091993
p1949
aVtt0338188
p1950
aVtt0091635
p1951
aVtt0356634
p1952
aVtt1231580
p1953
aVtt0181536
p1954
aVtt0113161
p1955
aVtt0240462
p1956
aVtt0094612
p1957
aVtt1735898
p1958
aVtt0120789
p1959
aVtt0444682
p1960
aVtt1397280
p1961
aVtt0134847
p1962
aVtt1980209
p1963
aVtt0102250
p1964
aVtt0366174
p1965
aVtt1000774
p1966
aVtt0093175
p1967
aVtt0146882
p1968
aVtt0087363
p1969
aVtt0109890
p1970
aVtt0114576
p1971
aVtt1483013
p1972
aVtt0112641
p1973
aVtt0126916
p1974
aVtt0758794
p1975
aVtt0492044
p1976
aVtt0109676
p1977
aVtt0098439
p1978
aVtt1210042
p1979
aVtt0120784
p1980
aVtt0107048
p1981
aVtt0212985
p1982
aVtt0232500
p1983
aVtt0426931
p1984
aVtt0457419
p1985
aVtt0098621
p1986
aVtt0098051
p1987
aVtt0084316
p1988
aVtt0096380
p1989
aVtt0083967
p1990
aVtt0086250
p1991
aVtt0265662
p1992
aVtt1396218
p1993
aVtt0102603
p1994
aVtt1210166
p1995
aVtt0120029
p1996
aVtt0285742
p1997
aVtt1411697
p1998
aVtt0319343
p1999
aVtt0139462
p2000
aVtt0105415
p2001
aVtt0343135
p2002
aVtt0098663
p2003
aVtt0114214
p2004
aVtt0117038
p2005
aVtt0105417
p2006
aVtt0110622
p2007
aVtt0120885
p2008
aVtt0117119
p2009
aVtt1596365
p2010
aVtt0092997
p2011
aVtt0120768
p2012
aVtt1057500
p2013
aVtt0250720
p2014
aVtt0204626
p2015
aVtt0280707
p2016
aVtt0094606
p2017
aVtt0163025
p2018
aVtt0103978
p2019
aVtt0486946
p2020
aVtt0092991
p2021
aVtt0099365
p2022
aVtt0880578
p2023
aVtt0085382
p2024
aVtt0322259
p2025
aVtt0087892
p2026
aVtt0339412
p2027
aVtt0082764
p2028
aVtt0116322
p2029
aVtt0234829
p2030
aVtt0808151
p2031
aVtt0438488
p2032
aVtt0089424
p2033
aVtt1860353
p2034
aVtt0086465
p2035
aVtt0108071
p2036
aVtt0451079
p2037
aVtt0106673
p2038
aVtt0095593
p2039
aVtt0090774
p2040
aVtt0120696
p2041
aVtt0080855
p2042
aVtt0758774
p2043
aVtt0472181
p2044
aVtt0100802
p2045
aVtt0091605
p2046
aVtt0473705
p2047
aVtt1190080
p2048
aVtt1037705
p2049
aVtt0329717
p2050
aVtt0087182
p2051
aVtt0462499
p2052
aVtt0493464
p2053
aVtt0119094
p2054
aVtt0084412
p2055
aVtt0088707
p2056
aVtt0102749
p2057
aVtt0086886
p2058
aVtt0113117
p2059
aVtt0098105
p2060
aVtt0113321
p2061
aVtt0108052
p2062
aVtt1515091
p2063
aVtt0327056
p2064
aVtt0119099
p2065
aVtt0317198
p2066
aVtt0107286
p2067
aVtt1790885
p2068
aVtt0454945
p2069
aVtt0330373
p2070
aVtt1386703
p2071
aVtt0091939
p2072
aVtt0104254
p2073
aVtt0100240
p2074
aVtt0107413
p2075
aVtt0477071
p2076
aVtt0307987
p2077
aVtt0086637
p2078
aVtt1453405
p2079
aVtt1320244
p2080
aVtt0096874
p2081
aVtt0379865
p2082
aVtt0096787
p2083
aVtt0974661
p2084
aVtt0097053
p2085
aVtt0109493
p2086
aVtt0119174
p2087
aVtt0107843
p2088
aVtt0343660
p2089
aVtt0375210
p2090
aVtt0230838
p2091
aVtt1578275
p2092
aVtt0498399
p2093
aVtt0455612
p2094
aVtt1646987
p2095
aVtt0085210
p2096
aVtt1667353
p2097
aVtt0286788
p2098
aVtt0311113
p2099
aVtt0093058
p2100
aVtt0110950
p2101
aVtt0088987
p2102
aVtt0120888
p2103
aVtt0814255
p2104
aVtt0279493
p2105
aVtt0110066
p2106
aVtt0267891
p2107
aVtt0113114
p2108
aVtt0219653
p2109
aVtt0371746
p2110
aVtt0093277
p2111
aVtt0468569
p2112
aVtt0265632
p2113
aVtt0315327
p2114
aVtt0082971
p2115
aVtt1034303
p2116
aVtt1222815
p2117
aVtt0120773
p2118
aVtt0105812
p2119
aVtt0087843
p2120
aVtt0413267
p2121
aVtt0128853
p2122
aVtt0089913
p2123
aVtt0122690
p2124
aVtt0440963
p2125
aVtt0107120
p2126
aVtt0118583
p2127
aVtt0119978
p2128
aVtt0120201
p2129
aVtt0112572
p2130
aVtt0374536
p2131
aVtt2215285
p2132
aVtt0280030
p2133
aVtt0097457
p2134
aVtt1650043
p2135
aVtt0102469
p2136
aVtt1436562
p2137
aVtt0400717
p2138
aVtt1078912
p2139
aVtt0983193
p2140
aVtt0268380
p2141
aVtt0090605
p2142
aVtt0099091
p2143
aVtt0323642
p2144
aVtt0206314
p2145
aVtt0486583
p2146
aVtt0096054
p2147
aVtt0124879
p2148
aVtt0097123
p2149
aVtt0297181
p2150
aVtt0110167
p2151
aVtt0480687
p2152
aVtt0096094
p2153
aVtt0107362
p2154
aVtt0166813
p2155
aVtt0108186
p2156
aVtt0452681
p2157
aVtt0096332
p2158
aVtt0467197
p2159
aVtt0317132
p2160
aVtt0970866
p2161
aVtt0133751
p2162
aVtt0245674
p2163
aVtt0090060
p2164
aVtt0099512
p2165
aVtt0246544
p2166
aVtt0089092
p2167
aVtt0246460
p2168
aVtt0433362
p2169
aVtt0100405
p2170
aVtt0090180
p2171
aVtt1787759
p2172
aVtt0085218
p2173
aVtt0112679
p2174
aVtt0090859
p2175
aVtt1666186
p2176
aVtt0187738
p2177
aVtt1710396
p2178
aVtt0119313
p2179
aVtt0251413
p2180
aVtt1341188
p2181
aVtt0346491
p2182
aVtt0089087
p2183
aVtt1596343
p2184
aVtt0960731
p2185
aVtt0110116
p2186
aVtt0259711
p2187
aVtt0171580
p2188
aVtt0084602
p2189
aVtt0107688
p2190
aVtt0449059
p2191
aVtt0424774
p2192
aVtt0112715
p2193
aVtt0185183
p2194
aVtt0120434
p2195
aVtt0083629
p2196
aVtt0481499
p2197
aVtt0103112
p2198
aVtt0166485
p2199
aVtt0239395
p2200
aVtt0088915
p2201
aVtt0300471
p2202
aVtt1288558
p2203
aVtt0303933
p2204
aVtt0327850
p2205
aVtt1477715
p2206
aVtt0082136
p2207
aVtt0120655
p2208
aVtt0081187
p2209
aVtt0327554
p2210
aVtt0101545
p2211
aVtt0879870
p2212
aVtt0093779
p2213
aVtt0296572
p2214
aVtt0360486
p2215
aVtt0087089
p2216
aVtt0091991
p2217
aVtt0290095
p2218
aVtt0174856
p2219
aVtt0105636
p2220
aVtt1179891
p2221
aVtt0101625
p2222
aVtt0090350
p2223
aVtt0094933
p2224
aVtt0083511
p2225
aVtt0425061
p2226
aVtt0120764
p2227
aVtt0107665
p2228
aVtt0164912
p2229
aVtt0100087
p2230
aVtt0333780
p2231
aVtt0799949
p2232
aVtt0452625
p2233
aVtt0268995
p2234
aVtt0116126
p2235
aVtt0081375
p2236
aVtt0171363
p2237
aVtt0117603
p2238
aVtt0088172
p2239
aVtt0107889
p2240
aVtt0099747
p2241
aVtt0090728
p2242
aVtt0120815
p2243
aVtt0120889
p2244
aVtt0084021
p2245
aVtt0433035
p2246
aVtt0118928
p2247
aVtt0981227
p2248
aVtt0103035
p2249
aVtt0095489
p2250
aVtt0239948
p2251
aVtt0327597
p2252
aVtt0317219
p2253
aVtt1673434
p2254
aVtt0124718
p2255
aVtt0114694
p2256
aVtt0086374
p2257
aVtt0936501
p2258
aVtt0328107
p2259
aVtt0120812
p2260
aVtt0086979
p2261
aVtt0329575
p2262
aVtt0264472
p2263
aVtt0119738
p2264
aVtt0816711
p2265
aVtt0139654
p2266
aVtt0174480
p2267
aVtt0316732
p2268
aVtt0115986
p2269
aVtt1596346
p2270
aVtt0093209
p2271
aVtt0486578
p2272
aVtt0086190
p2273
aVtt0780571
p2274
aVtt0109635
p2275
aVtt0115697
p2276
aVtt0351283
p2277
aVtt1931435
p2278
aVtt0118972
p2279
aVtt1302067
p2280
aVtt0089869
p2281
aVtt0443649
p2282
aVtt1711425
p2283
aVtt0112281
p2284
aVtt0099699
p2285
aVtt1189340
p2286
aVtt1014775
p2287
aVtt1047494
p2288
aVtt0119142
p2289
aVtt0116313
p2290
aVtt0389
p2291
aVtt0377062
p2292
aVtt0102057
p2293
aVtt0112625
p2294
aVtt0277296
p2295
aVtt0775552
p2296
aVtt0457939
p2297
aVtt0098536
p2298
aVtt0082307
p2299
aVtt1129423
p2300
aVtt0099052
p2301
aVtt0103251
p2302
aVtt1648179
p2303
aVtt0117631
p2304
aVtt0305357
p2305
aVtt0097165
p2306
aVtt0094824
p2307
aVtt0097742
p2308
aVtt0113552
p2309
aVtt0274166
p2310
aVtt0118799
p2311
aVtt0119214
p2312
aVtt0087803
p2313
aVtt1939659
p2314
aVtt0106965
p2315
aVtt1127180
p2316
aVtt0104265
p2317
aVtt0377092
p2318
aVtt0120660
p2319
aVtt2387559
p2320
aVtt0117438
p2321
aVtt0455967
p2322
aVtt0101393
p2323
aVtt0100740
p2324
aVtt0115783
p2325
aVtt0132245
p2326
aVtt0408236
p2327
aVtt0120903
p2328
aVtt0091445
p2329
aVtt0838283
p2330
aVtt0436339
p2331
aVtt0108525
p2332
aVtt0430105
p2333
aVtt0105414
p2334
aVtt0120616
p2335
aVtt0106220
p2336
aVtt0137363
p2337
aVtt0160009
p2338
aVtt0103074
p2339
aVtt0106611
p2340
aVtt0445922
p2341
aVtt1385912
p2342
aVtt0141369
p2343
aVtt0112851
p2344
aVtt0385752
p2345
aVtt0084395
p2346
aVtt0080549
p2347
aVtt0120318
p2348
aVtt0107985
p2349
aVtt0094921
p2350
aVtt0111400
p2351
aVtt0117608
p2352
aVtt0814335
p2353
aVtt0080731
p2354
aVtt0314331
p2355
aVtt0304669
p2356
aVtt0195714
p2357
aVtt0104299
p2358
aVtt0328099
p2359
aVtt0105466
p2360
aVtt0246002
p2361
aVtt0090015
p2362
aVtt0251075
p2363
aVtt0095742
p2364
aVtt0978764
p2365
aVtt0110912
p2366
aVtt0089385
p2367
aVtt1232829
p2368
aVtt0268695
p2369
aVtt0118688
p2370
aVtt0233469
p2371
aVtt0278488
p2372
aVtt0120794
p2373
aVtt0113497
p2374
aVtt1028576
p2375
aVtt0418689
p2376
aVtt0094910
p2377
aVtt0092974
p2378
aVtt1535108
p2379
aVtt0093596
p2380
aVtt0115433
p2381
aVtt0120004
p2382
aVtt1243957
p2383
aVtt0086491
p2384
aVtt0097757
p2385
aVtt0093640
p2386
aVtt1615918
p2387
aVtt0244970
p2388
aVtt0101984
p2389
aVtt0104346
p2390
aVtt0119190
p2391
aVtt0119282
p2392
aVtt0097778
p2393
aVtt0120751
p2394
aVtt0093186
p2395
aVtt0099528
p2396
aVtt1405500
p2397
aVtt1762399
p2398
aVtt0107863
p2399
aVtt0119925
p2400
aVtt0230011
p2401
aVtt0086450
p2402
aVtt1049413
p2403
aVtt0093565
p2404
aVtt0102768
p2405
aVtt0822854
p2406
aVtt1311067
p2407
aVtt0780653
p2408
aVtt0087231
p2409
aVtt0099726
p2410
aVtt0306685
p2411
aVtt0112346
p2412
aVtt0086361
p2413
aVtt1314655
p2414
aVtt0120772
p2415
aVtt0186566
p2416
aVtt1343092
p2417
aVtt0094008
p2418
aVtt0109040
p2419
aVtt0087344
p2420
aVtt0089670
p2421
aVtt0098308
p2422
aVtt1386588
p2423
aVtt0101862
p2424
aVtt0106868
p2425
aVtt1599348
p2426
aVtt0116168
p2427
aVtt0100050
p2428
aVtt0455857
p2429
aVtt0098320
p2430
aVtt0087262
p2431
aVtt0113118
p2432
aVtt0086879
p2433
aVtt0092563
p2434
aVtt1320253
p2435
aVtt0104558
p2436
aVtt1074638
p2437
aVtt1314228
p2438
aVtt0369436
p2439
aVtt0098319
p2440
aVtt1045778
p2441
aVtt0466909
p2442
aVtt0115759
p2443
aVtt0080472
p2444
aVtt0405325
p2445
aVtt0119822
p2446
aVtt0119314
p2447
aVtt0110399
p2448
aVtt0162983
p2449
aVtt0329774
p2450
aVtt0087428
p2451
aVtt0112857
p2452
aVtt0095304
p2453
aVtt0396269
p2454
aVtt0432291
p2455
aVtt0089603
p2456
aVtt0099710
p2457
aVtt0362227
p2458
aVtt0108333
p2459
aVtt0988045
p2460
aVtt0091499
p2461
aVtt0100395
p2462
aVtt0290296
p2463
aVtt1067583
p2464
aVtt0090022
p2465
aVtt0184894
p2466
aVtt0305224
p2467
aVtt1284575
p2468
aVtt1294226
p2469
aVtt0106519
p2470
aVtt0271027
p2471
aVtt0086312
p2472
aVtt0158983
p2473
aVtt1219289
p2474
aVtt1136608
p2475
aVtt1583420
p2476
aVtt1572315
p2477
aVtt0093748
p2478
aVtt0090655
p2479
aVtt0111256
p2480
aVtt0271668
p2481
aVtt0113253
p2482
aVtt0282209
p2483
aVtt0102951
p2484
aVtt0110443
p2485
aVtt0
p2486
aVtt0097276
p2487
aVtt0094894
p2488
aVtt0185431
p2489
aVtt0097179
p2490
aVtt0090329
p2491
aVtt0093793
p2492
aVtt0452637
p2493
aVtt0087718
p2494
aVtt0089643
p2495
aVtt0217869
p2496
aVtt1637688
p2497
aVtt0413099
p2498
aVtt0082096
p2499
aVtt0381849
p2500
aVtt0100054
p2501
aVtt0200027
p2502
aVtt0095690
p2503
aVtt0134619
p2504
aVtt0429493
p2505
aVtt0491152
p2506
aVtt1007029
p2507
aVtt0397892
p2508
aVtt0095348
p2509
aVtt1197624
p2510
aVtt0106977
p2511
aVtt0091541
p2512
aVtt0100611
p2513
aVtt0218839
p2514
aVtt0120008
p2515
aVtt0092890
p2516
aVtt0099674
p2517
aVtt0113845
p2518
aVtt1454029
p2519
aVtt0119081
p2520
aVtt0092605
p2521
aVtt0325537
p2522
aVtt0295701
p2523
aVtt0096895
p2524
aVtt0177789
p2525
aVtt0081398
p2526
aVtt0369735
p2527
aVtt0104412
p2528
aVtt0094602
p2529
aVtt0104257
p2530
aVtt0085244
p2531
aVtt0422774
p2532
aVtt0955308
p2533
aVtt1080016
p2534
aVtt0389790
p2535
aVtt0114319
p2536
aVtt0149691
p2537
aVtt0108238
p2538
aVtt2334879
p2539
aVtt0386117
p2540
aVtt0098635
p2541
aVtt0106489
p2542
aVtt0119664
p2543
aVtt0089200
p2544
aVtt0107630
p2545
aVtt1712170
p2546
aVtt0116250
p2547
aVtt0097637
p2548
aVtt0264935
p2549
aVtt0211181
p2550
aVtt0090056
p2551
aVtt0097162
p2552
aVtt1287468
p2553
aVtt0309593
p2554
aVtt0089160
p2555
aVtt0859163
p2556
aVtt0102370
p2557
aVtt0377109
p2558
aVtt0145660
p2559
aVtt0089017
p2560
aVtt0114898
p2561
aVtt0173840
p2562
aVtt0160862
p2563
aVtt0120184
p2564
aVtt0083851
p2565
aVtt0337909
p2566
aVtt0091203
p2567
aVtt0091680
p2568
aVtt0087727
p2569
aVtt1179056
p2570
aVtt0361596
p2571
aVtt0139134
p2572
aVtt0099165
p2573
aVtt0800369
p2574
aVtt0469641
p2575
aVtt0119215
p2576
aVtt0088128
p2577
aVtt0085636
p2578
aVtt0094737
p2579
aVtt0209958
p2580
aVtt1606378
p2581
aVtt1234548
p2582
aVtt0113862
p2583
aVtt0132477
p2584
aVtt0108101
p2585
aVtt1615065
p2586
aVtt0092007
p2587
aVtt0298148
p2588
aVtt1078588
p2589
aVtt0104036
p2590
aVtt0421206
p2591
aVtt0100530
p2592
aVtt0111418
p2593
aVtt0099582
p2594
aVtt0275022
p2595
aVtt0105813
p2596
aVtt0486822
p2597
aVtt0104839
p2598
aVtt1034331
p2599
aVtt0086973
p2600
aVtt0445934
p2601
aVtt0881891
p2602
aVtt0089360
p2603
aVtt0244244
p2604
aVtt0102614
p2605
aVtt0110527
p2606
aVtt0129280
p2607
aVtt0110157
p2608
aVtt0352248
p2609
aVtt0081777
p2610
aVtt0245803
p2611
aVtt0338013
p2612
aVtt0104797
p2613
aVtt0255819
p2614
aVtt0094739
p2615
aVtt0097500
p2616
aVtt0387131
p2617
aVtt0210945
p2618
aVtt0325980
p2619
aVtt0090219
p2620
aVtt0087968
p2621
aVtt0114369
p2622
aVtt0112740
p2623
aVtt0093378
p2624
aVtt0082288
p2625
aVtt0375063
p2626
aVtt0100814
p2627
aVtt0081633
p2628
aVtt0088933
p2629
aVtt0431021
p2630
aVtt0255798
p2631
aVtt0097116
p2632
aVtt0259288
p2633
aVtt0362270
p2634
aVtt0096454
p2635
aVtt0121164
p2636
aVtt0109642
p2637
aVtt0108451
p2638
aVtt0091637
p2639
aVtt0113690
p2640
aVtt0100485
p2641
aVtt0191397
p2642
aVtt0104231
p2643
aVtt0319262
p2644
aVtt0120686
p2645
aVtt0091983
p2646
aVtt0083806
p2647
aVtt0109446
p2648
aVtt0090103
p2649
aVtt0089601
p2650
aVtt0086927
p2651
aVtt0094332
p2652
aVtt0780521
p2653
aVtt1046173
p2654
aVtt0349683
p2655
aVtt0109305
p2656
aVtt0097958
p2657
aVtt0088889
p2658
aVtt1222817
p2659
aVtt0082418
p2660
aVtt0117247
p2661
aVtt0120787
p2662
aVtt0283026
p2663
aVtt0253754
p2664
aVtt0092494
p2665
aVtt0093428
p2666
aVtt0100666
p2667
aVtt0086066
p2668
aVtt0481141
p2669
aVtt0105695
p2670
aVtt0080761
p2671
aVtt0253556
p2672
aVtt0410377
p2673
aVtt0762121
p2674
aVtt0301470
p2675
aVtt0424823
p2676
aVtt0113305
p2677
aVtt0241527
p2678
aVtt0430357
p2679
aVtt0110932
p2680
aVtt0762107
p2681
aVtt0446046
p2682
aVtt1621045
p2683
aVtt0332047
p2684
aVtt1979320
p2685
aVtt0120693
p2686
aVtt1334512
p2687
aVtt0159273
p2688
aVtt0119643
p2689
aVtt0089370
p2690
aVtt0080556
p2691
aVtt0120844
p2692
aVtt0080436
p2693
aVtt0108551
p2694
aVtt0084445
p2695
aVtt0120685
p2696
aVtt0113755
p2697
aVtt0120917
p2698
aVtt0108255
p2699
aVtt1104001
p2700
aVtt2609758
p2701
aVtt1430607
p2702
aVtt0080487
p2703
aVtt0119807
p2704
aVtt0132347
p2705
aVtt0110186
p2706
aVtt0117887
p2707
aVtt0277027
p2708
aVtt0095631
p2709
aVtt0093818
p2710
aVtt0100318
p2711
aVtt0926129
p2712
aVtt1010048
p2713
aVtt0095687
p2714
aVtt0104926
p2715
aVtt0462322
p2716
aVtt0119109
p2717
aVtt0091778
p2718
aVtt0265298
p2719
aVtt0338337
p2720
aVtt0808510
p2721
aVtt0406759
p2722
aVtt1259571
p2723
aVtt1606389
p2724
aVtt0080339
p2725
aVtt0106627
p2726
aVtt0164184
p2727
aVtt0114825
p2728
aVtt0096794
p2729
aVtt1667889
p2730
aVtt0209475
p2731
aVtt0101590
p2732
aVtt0349825
p2733
aVtt0760329
p2734
aVtt0371606
p2735
aVtt0215750
p2736
aVtt0401729
p2737
aVtt0338526
p2738
aVtt0384793
p2739
aVtt0097388
p2740
aVtt0116908
p2741
aVtt1905041
p2742
aVtt0878804
p2743
aVtt0465538
p2744
aVtt0101746
p2745
aVtt0085271
p2746
aVtt1758830
p2747
aVtt0376994
p2748
aVtt0450340
p2749
aVtt0117420
p2750
aVtt0424095
p2751
aVtt0106912
p2752
aVtt0120591
p2753
aVtt0458339
p2754
aVtt0373883
p2755
aVtt1645170
p2756
aVtt0084049
p2757
aVtt0088680
p2758
aVtt0099653
p2759
aVtt0101635
p2760
aVtt0349205
p2761
aVtt0373926
p2762
aVtt0492956
p2763
aVtt0269341
p2764
aVtt0445990
p2765
aVtt0186894
p2766
aVtt0248667
p2767
aVtt0099371
p2768
aVtt0085640
p2769
aVtt1690953
p2770
aVtt0443706
p2771
aVtt0093220
p2772
aVtt0099472
p2773
aVtt0145487
p2774
aVtt0448157
p2775
aVtt0096098
p2776
aVtt1637725
p2777
aVtt0101414
p2778
aVtt0102011
p2779
aVtt0095159
p2780
aVtt0111161
p2781
aVtt1327773
p2782
aVtt1130080
p2783
aVtt0887883
p2784
aVtt0097441
p2785
aVtt0243155
p2786
aVtt0116654
p2787
aVtt0327437
p2788
aVtt0218967
p2789
aVtt0098084
p2790
aVtt0300051
p2791
aVtt0100280
p2792
aVtt0186151
p2793
aVtt0406816
p2794
aVtt0118604
p2795
aVtt1219342
p2796
aVtt0104695
p2797
aVtt0087365
p2798
aVtt0088939
p2799
aVtt0096256
p2800
aVtt0149261
p2801
aVtt0466342
p2802
aVtt0362120
p2803
aVtt0372784
p2804
aVtt0892769
p2805
aVtt0401792
p2806
aVtt0247425
p2807
aVtt0123209
p2808
aVtt0090856
p2809
aVtt0093260
p2810
aVtt0094078
p2811
aVtt0358349
p2812
aVtt0086022
p2813
aVtt0108037
p2814
aVtt0166396
p2815
aVtt0120780
p2816
aVtt0374102
p2817
aVtt0372532
p2818
aVtt0337741
p2819
aVtt0103919
p2820
aVtt0084434
p2821
aVtt0083972
p2822
aVtt0454921
p2823
aVtt0139668
p2824
aVtt0090305
p2825
aVtt0377818
p2826
aVtt0110612
p2827
aVtt0120102
p2828
aVtt0790736
p2829
aVtt0120744
p2830
aVtt0088814
p2831
aVtt0103064
p2832
aVtt1462769
p2833
aVtt0910936
p2834
aVtt0102526
p2835
aVtt0119051
p2836
aVtt1409024
p2837
aVtt0097576
p2838
aVtt0463034
p2839
aVtt0475276
p2840
aVtt0104694
p2841
aVtt0871426
p2842
aVtt0320691
p2843
aVtt0479952
p2844
aVtt1623205
p2845
aVtt0359517
p2846
aVtt0117665
p2847
aVtt0087298
p2848
aVtt0418647
p2849
aVtt0325710
p2850
aVtt0286499
p2851
aVtt1217209
p2852
aVtt0095174
p2853
aVtt1389137
p2854
aVtt0102175
p2855
aVtt0489237
p2856
aVtt0106697
p2857
aVtt0084809
p2858
aVtt0293815
p2859
aVtt0810913
p2860
aVtt1415283
p2861
aVtt0382625
p2862
aVtt0113986
p2863
aVtt0286716
p2864
aVtt0335438
p2865
aVtt0308506
p2866
aVtt0082507
p2867
aVtt0926084
p2868
aVtt0083833
p2869
aVtt0092804
p2870
aVtt0449089
p2871
aVtt0407304
p2872
aVtt0278295
p2873
aVtt0102713
p2874
aVtt0414853
p2875
aVtt0093011
p2876
aVtt0199753
p2877
aVtt0403508
p2878
aVtt1517260
p2879
aVtt0108174
p2880
aVtt0369339
p2881
aVtt0252866
p2882
aVtt0119229
p2883
aVtt0964517
p2884
aVtt0112792
p2885
aVtt0098258
p2886
aVtt0116731
p2887
aVtt0138097
p2888
aVtt0097351
p2889
aVtt0272152
p2890
aVtt0119707
p2891
aVtt0457510
p2892
aVtt0088930
p2893
aVtt0120524
p2894
aVtt1060277
p2895
aVtt0104549
p2896
aVtt1234719
p2897
aVtt0388125
p2898
aVtt0101969
p2899
aVtt0889573
p2900
aVtt0120633
p2901
aVtt0098645
p2902
aVtt0101757
p2903
aVtt0944835
p2904
aVtt0086200
p2905
aVtt0093693
p2906
aVtt0120681
p2907
aVtt0265029
p2908
aVtt0443632
p2909
aVtt0107057
p2910
aVtt0113277
p2911
aVtt0113820
p2912
aVtt0993842
p2913
aVtt0970416
p2914
aVtt0103772
p2915
aVtt0408839
p2916
aVtt0083642
p2917
aVtt0100758
p2918
aVtt0117998
p2919
aVtt0094006
p2920
aVtt0096328
p2921
aVtt0110357
p2922
aVtt0454841
p2923
aVtt1564349
p2924
aVtt0377981
p2925
aVtt0103786
p2926
aVtt0092272
p2927
aVtt0385307
p2928
aVtt0082252
p2929
aVtt0089346
p2930
aVtt0091419
p2931
aVtt0421715
p2932
aVtt1156398
p2933
aVtt0116996
p2934
aVtt0104438
p2935
aVtt0397065
p2936
aVtt0156934
p2937
aVtt1702443
p2938
a.